                              1 ;--------------------------------------------------------
                              2 ; File Created by SDCC : FreeWare ANSI-C Compiler
                              3 ; Version 2.2.1 Mon Jan 27 20:58:36 2020
                              4 
                              5 ;--------------------------------------------------------
                              6 	.module lcc60040
                              7 	
                              8 ;--------------------------------------------------------
                              9 ; Public variables in this module
                             10 ;--------------------------------------------------------
                             11 	.globl _main
                             12 	.globl _setupFrog
                             13 	.globl _setupPickle
                             14 	.globl _movegamecharacter
                             15 	.globl _checkcollisions
                             16 	.globl _performantdelay
                             17 	.globl _move_sprite
                             18 	.globl _set_sprite_tile
                             19 	.globl _set_sprite_data
                             20 	.globl _set_bkg_tiles
                             21 	.globl _set_bkg_data
                             22 	.globl _wait_vbl_done
                             23 	.globl _joypad
                             24 	.globl _printf
                             25 	.globl _lives
                             26 	.globl _spritesize
                             27 	.globl _pickleChar
                             28 	.globl _frogChar
                             29 	.globl _playfield
                             30 	.globl _bgTiles
                             31 	.globl _sprites
                             32 	.globl _main
                             33 	.globl _setupFrog
                             34 	.globl _setupPickle
                             35 	.globl _movegamecharacter
                             36 	.globl _checkcollisions
                             37 	.globl _performantdelay
                             38 ;--------------------------------------------------------
                             39 ; Externals used
                             40 ;--------------------------------------------------------
                             41 	.globl _IE_REG
                             42 	.globl _SVBK_REG
                             43 	.globl _OCPD_REG
                             44 	.globl _OCPS_REG
                             45 	.globl _BCPD_REG
                             46 	.globl _BCPS_REG
                             47 	.globl _RP_REG
                             48 	.globl _HDMA5_REG
                             49 	.globl _HDMA4_REG
                             50 	.globl _HDMA3_REG
                             51 	.globl _HDMA2_REG
                             52 	.globl _HDMA1_REG
                             53 	.globl _VBK_REG
                             54 	.globl _KEY1_REG
                             55 	.globl _WX_REG
                             56 	.globl _WY_REG
                             57 	.globl _OBP1_REG
                             58 	.globl _OBP0_REG
                             59 	.globl _BGP_REG
                             60 	.globl _DMA_REG
                             61 	.globl _LYC_REG
                             62 	.globl _LY_REG
                             63 	.globl _SCX_REG
                             64 	.globl _SCY_REG
                             65 	.globl _STAT_REG
                             66 	.globl _LCDC_REG
                             67 	.globl _NR52_REG
                             68 	.globl _NR51_REG
                             69 	.globl _NR50_REG
                             70 	.globl _NR44_REG
                             71 	.globl _NR43_REG
                             72 	.globl _NR42_REG
                             73 	.globl _NR41_REG
                             74 	.globl _NR34_REG
                             75 	.globl _NR33_REG
                             76 	.globl _NR32_REG
                             77 	.globl _NR31_REG
                             78 	.globl _NR30_REG
                             79 	.globl _NR24_REG
                             80 	.globl _NR23_REG
                             81 	.globl _NR22_REG
                             82 	.globl _NR21_REG
                             83 	.globl _NR14_REG
                             84 	.globl _NR13_REG
                             85 	.globl _NR12_REG
                             86 	.globl _NR11_REG
                             87 	.globl _NR10_REG
                             88 	.globl _IF_REG
                             89 	.globl _TAC_REG
                             90 	.globl _TMA_REG
                             91 	.globl _TIMA_REG
                             92 	.globl _DIV_REG
                             93 	.globl _SC_REG
                             94 	.globl _SB_REG
                             95 	.globl _P1_REG
                             96 	.globl __io_out
                             97 	.globl __io_in
                             98 	.globl __io_status
                             99 	.globl _sys_time
                            100 	.globl __cpu
                            101 ;--------------------------------------------------------
                            102 ; special function registers
                            103 ;--------------------------------------------------------
                            104 ;--------------------------------------------------------
                            105 ; special function bits 
                            106 ;--------------------------------------------------------
                            107 ;--------------------------------------------------------
                            108 ; internal ram data
                            109 ;--------------------------------------------------------
                            110 	.area _DATA
   0000                     111 _sprites::
   0000                     112 	.ds 128
   0080                     113 _bgTiles::
   0080                     114 	.ds 64
   00C0                     115 _playfield::
   00C0                     116 	.ds 360
   0228                     117 _frogChar::
   0228                     118 	.ds 8
   0230                     119 _pickleChar::
   0230                     120 	.ds 8
   0238                     121 _spritesize::
   0238                     122 	.ds 1
   0239                     123 _lives::
   0239                     124 	.ds 1
                            125 ;--------------------------------------------------------
                            126 ; overlayable items in internal ram 
                            127 ;--------------------------------------------------------
                            128 	.area _OVERLAY
                            129 ;--------------------------------------------------------
                            130 ; indirectly addressable internal ram data
                            131 ;--------------------------------------------------------
                            132 	.area _ISEG
                            133 ;--------------------------------------------------------
                            134 ; bit data
                            135 ;--------------------------------------------------------
                            136 	.area _BSEG
                            137 ;--------------------------------------------------------
                            138 ; external ram data
                            139 ;--------------------------------------------------------
                            140 	.area _XSEG
                            141 ;--------------------------------------------------------
                            142 ; global & static initialisations
                            143 ;--------------------------------------------------------
                            144 	.area _GSINIT
                            145 	.area _GSFINAL
                            146 	.area _GSINIT
                            147 ;	main.c 121
                            148 ; genAssign (pointer)
   0000 11 00 00            149 	ld	de,#_sprites + 0
   0003 3E 00               150 	ld	a,#0x00
   0005 12                  151 	ld	(de),a
                            152 ; genPlus
                            153 ; genPlusIncr
   0006 11 01 00            154 	ld	de,#_sprites + 0 + 1
                            155 ; genAssign (pointer)
   0009 3E 13               156 	ld	a,#0x13
   000B 12                  157 	ld	(de),a
                            158 ; genPlus
                            159 ; genPlusIncr
   000C 11 02 00            160 	ld	de,#_sprites + 0 + 2
                            161 ; genAssign (pointer)
   000F 3E 00               162 	ld	a,#0x00
   0011 12                  163 	ld	(de),a
                            164 ; genPlus
                            165 ; genPlusIncr
   0012 11 03 00            166 	ld	de,#_sprites + 0 + 3
                            167 ; genAssign (pointer)
   0015 3E 13               168 	ld	a,#0x13
   0017 12                  169 	ld	(de),a
                            170 ; genPlus
                            171 ; genPlusIncr
   0018 11 04 00            172 	ld	de,#_sprites + 0 + 4
                            173 ; genAssign (pointer)
   001B 3E 00               174 	ld	a,#0x00
   001D 12                  175 	ld	(de),a
                            176 ; genPlus
                            177 ; genPlusIncr
   001E 11 05 00            178 	ld	de,#_sprites + 0 + 5
                            179 ; genAssign (pointer)
   0021 3E 13               180 	ld	a,#0x13
   0023 12                  181 	ld	(de),a
                            182 ; genPlus
                            183 ; genPlusIncr
   0024 11 06 00            184 	ld	de,#_sprites + 0 + 6
                            185 ; genAssign (pointer)
   0027 3E 00               186 	ld	a,#0x00
   0029 12                  187 	ld	(de),a
                            188 ; genPlus
                            189 ; genPlusIncr
   002A 11 07 00            190 	ld	de,#_sprites + 0 + 7
                            191 ; genAssign (pointer)
   002D 3E 13               192 	ld	a,#0x13
   002F 12                  193 	ld	(de),a
                            194 ; genPlus
                            195 ; genPlusIncr
   0030 11 08 00            196 	ld	de,#_sprites + 0 + 8
                            197 ; genAssign (pointer)
   0033 3E 00               198 	ld	a,#0x00
   0035 12                  199 	ld	(de),a
                            200 ; genPlus
                            201 ; genPlusIncr
   0036 11 09 00            202 	ld	de,#_sprites + 0 + 9
                            203 ; genAssign (pointer)
   0039 3E 1F               204 	ld	a,#0x1F
   003B 12                  205 	ld	(de),a
                            206 ; genPlus
                            207 ; genPlusIncr
   003C 11 0A 00            208 	ld	de,#_sprites + 0 + 10
                            209 ; genAssign (pointer)
   003F 3E 00               210 	ld	a,#0x00
   0041 12                  211 	ld	(de),a
                            212 ; genPlus
                            213 ; genPlusIncr
   0042 11 0B 00            214 	ld	de,#_sprites + 0 + 11
                            215 ; genAssign (pointer)
   0045 3E 03               216 	ld	a,#0x03
   0047 12                  217 	ld	(de),a
                            218 ; genPlus
                            219 ; genPlusIncr
   0048 11 0C 00            220 	ld	de,#_sprites + 0 + 12
                            221 ; genAssign (pointer)
   004B 3E 00               222 	ld	a,#0x00
   004D 12                  223 	ld	(de),a
                            224 ; genPlus
                            225 ; genPlusIncr
   004E 11 0D 00            226 	ld	de,#_sprites + 0 + 13
                            227 ; genAssign (pointer)
   0051 3E 03               228 	ld	a,#0x03
   0053 12                  229 	ld	(de),a
                            230 ; genPlus
                            231 ; genPlusIncr
   0054 11 0E 00            232 	ld	de,#_sprites + 0 + 14
                            233 ; genAssign (pointer)
   0057 3E 00               234 	ld	a,#0x00
   0059 12                  235 	ld	(de),a
                            236 ; genPlus
                            237 ; genPlusIncr
   005A 11 0F 00            238 	ld	de,#_sprites + 0 + 15
                            239 ; genAssign (pointer)
   005D 3E 03               240 	ld	a,#0x03
   005F 12                  241 	ld	(de),a
                            242 ; genPlus
                            243 ; genPlusIncr
   0060 11 10 00            244 	ld	de,#_sprites + 0 + 16
                            245 ; genAssign (pointer)
   0063 3E 00               246 	ld	a,#0x00
   0065 12                  247 	ld	(de),a
                            248 ; genPlus
                            249 ; genPlusIncr
   0066 11 11 00            250 	ld	de,#_sprites + 0 + 17
                            251 ; genAssign (pointer)
   0069 3E 90               252 	ld	a,#0x90
   006B 12                  253 	ld	(de),a
                            254 ; genPlus
                            255 ; genPlusIncr
   006C 11 12 00            256 	ld	de,#_sprites + 0 + 18
                            257 ; genAssign (pointer)
   006F 3E 00               258 	ld	a,#0x00
   0071 12                  259 	ld	(de),a
                            260 ; genPlus
                            261 ; genPlusIncr
   0072 11 13 00            262 	ld	de,#_sprites + 0 + 19
                            263 ; genAssign (pointer)
   0075 3E 90               264 	ld	a,#0x90
   0077 12                  265 	ld	(de),a
                            266 ; genPlus
                            267 ; genPlusIncr
   0078 11 14 00            268 	ld	de,#_sprites + 0 + 20
                            269 ; genAssign (pointer)
   007B 3E 00               270 	ld	a,#0x00
   007D 12                  271 	ld	(de),a
                            272 ; genPlus
                            273 ; genPlusIncr
   007E 11 15 00            274 	ld	de,#_sprites + 0 + 21
                            275 ; genAssign (pointer)
   0081 3E 90               276 	ld	a,#0x90
   0083 12                  277 	ld	(de),a
                            278 ; genPlus
                            279 ; genPlusIncr
   0084 11 16 00            280 	ld	de,#_sprites + 0 + 22
                            281 ; genAssign (pointer)
   0087 3E 00               282 	ld	a,#0x00
   0089 12                  283 	ld	(de),a
                            284 ; genPlus
                            285 ; genPlusIncr
   008A 11 17 00            286 	ld	de,#_sprites + 0 + 23
                            287 ; genAssign (pointer)
   008D 3E 90               288 	ld	a,#0x90
   008F 12                  289 	ld	(de),a
                            290 ; genPlus
                            291 ; genPlusIncr
   0090 11 18 00            292 	ld	de,#_sprites + 0 + 24
                            293 ; genAssign (pointer)
   0093 3E 00               294 	ld	a,#0x00
   0095 12                  295 	ld	(de),a
                            296 ; genPlus
                            297 ; genPlusIncr
   0096 11 19 00            298 	ld	de,#_sprites + 0 + 25
                            299 ; genAssign (pointer)
   0099 3E F0               300 	ld	a,#0xF0
   009B 12                  301 	ld	(de),a
                            302 ; genPlus
                            303 ; genPlusIncr
   009C 11 1A 00            304 	ld	de,#_sprites + 0 + 26
                            305 ; genAssign (pointer)
   009F 3E 00               306 	ld	a,#0x00
   00A1 12                  307 	ld	(de),a
                            308 ; genPlus
                            309 ; genPlusIncr
   00A2 11 1B 00            310 	ld	de,#_sprites + 0 + 27
                            311 ; genAssign (pointer)
   00A5 3E 80               312 	ld	a,#0x80
   00A7 12                  313 	ld	(de),a
                            314 ; genPlus
                            315 ; genPlusIncr
   00A8 11 1C 00            316 	ld	de,#_sprites + 0 + 28
                            317 ; genAssign (pointer)
   00AB 3E 00               318 	ld	a,#0x00
   00AD 12                  319 	ld	(de),a
                            320 ; genPlus
                            321 ; genPlusIncr
   00AE 11 1D 00            322 	ld	de,#_sprites + 0 + 29
                            323 ; genAssign (pointer)
   00B1 3E 80               324 	ld	a,#0x80
   00B3 12                  325 	ld	(de),a
                            326 ; genPlus
                            327 ; genPlusIncr
   00B4 11 1E 00            328 	ld	de,#_sprites + 0 + 30
                            329 ; genAssign (pointer)
   00B7 3E 00               330 	ld	a,#0x00
   00B9 12                  331 	ld	(de),a
                            332 ; genPlus
                            333 ; genPlusIncr
   00BA 11 1F 00            334 	ld	de,#_sprites + 0 + 31
                            335 ; genAssign (pointer)
   00BD 3E 80               336 	ld	a,#0x80
   00BF 12                  337 	ld	(de),a
                            338 ; genPlus
                            339 ; genPlusIncr
   00C0 11 20 00            340 	ld	de,#_sprites + 0 + 32
                            341 ; genAssign (pointer)
   00C3 3E 00               342 	ld	a,#0x00
   00C5 12                  343 	ld	(de),a
                            344 ; genPlus
                            345 ; genPlusIncr
   00C6 11 21 00            346 	ld	de,#_sprites + 0 + 33
                            347 ; genAssign (pointer)
   00C9 3E 03               348 	ld	a,#0x03
   00CB 12                  349 	ld	(de),a
                            350 ; genPlus
                            351 ; genPlusIncr
   00CC 11 22 00            352 	ld	de,#_sprites + 0 + 34
                            353 ; genAssign (pointer)
   00CF 3E 00               354 	ld	a,#0x00
   00D1 12                  355 	ld	(de),a
                            356 ; genPlus
                            357 ; genPlusIncr
   00D2 11 23 00            358 	ld	de,#_sprites + 0 + 35
                            359 ; genAssign (pointer)
   00D5 3E 03               360 	ld	a,#0x03
   00D7 12                  361 	ld	(de),a
                            362 ; genPlus
                            363 ; genPlusIncr
   00D8 11 24 00            364 	ld	de,#_sprites + 0 + 36
                            365 ; genAssign (pointer)
   00DB 3E 00               366 	ld	a,#0x00
   00DD 12                  367 	ld	(de),a
                            368 ; genPlus
                            369 ; genPlusIncr
   00DE 11 25 00            370 	ld	de,#_sprites + 0 + 37
                            371 ; genAssign (pointer)
   00E1 3E 07               372 	ld	a,#0x07
   00E3 12                  373 	ld	(de),a
                            374 ; genPlus
                            375 ; genPlusIncr
   00E4 11 26 00            376 	ld	de,#_sprites + 0 + 38
                            377 ; genAssign (pointer)
   00E7 3E 00               378 	ld	a,#0x00
   00E9 12                  379 	ld	(de),a
                            380 ; genPlus
                            381 ; genPlusIncr
   00EA 11 27 00            382 	ld	de,#_sprites + 0 + 39
                            383 ; genAssign (pointer)
   00ED 3E 04               384 	ld	a,#0x04
   00EF 12                  385 	ld	(de),a
                            386 ; genPlus
                            387 ; genPlusIncr
   00F0 11 28 00            388 	ld	de,#_sprites + 0 + 40
                            389 ; genAssign (pointer)
   00F3 3E 00               390 	ld	a,#0x00
   00F5 12                  391 	ld	(de),a
                            392 ; genPlus
                            393 ; genPlusIncr
   00F6 11 29 00            394 	ld	de,#_sprites + 0 + 41
                            395 ; genAssign (pointer)
   00F9 3E 04               396 	ld	a,#0x04
   00FB 12                  397 	ld	(de),a
                            398 ; genPlus
                            399 ; genPlusIncr
   00FC 11 2A 00            400 	ld	de,#_sprites + 0 + 42
                            401 ; genAssign (pointer)
   00FF 3E 00               402 	ld	a,#0x00
   0101 12                  403 	ld	(de),a
                            404 ; genPlus
                            405 ; genPlusIncr
   0102 11 2B 00            406 	ld	de,#_sprites + 0 + 43
                            407 ; genAssign (pointer)
   0105 3E 04               408 	ld	a,#0x04
   0107 12                  409 	ld	(de),a
                            410 ; genPlus
                            411 ; genPlusIncr
   0108 11 2C 00            412 	ld	de,#_sprites + 0 + 44
                            413 ; genAssign (pointer)
   010B 3E 00               414 	ld	a,#0x00
   010D 12                  415 	ld	(de),a
                            416 ; genPlus
                            417 ; genPlusIncr
   010E 11 2D 00            418 	ld	de,#_sprites + 0 + 45
                            419 ; genAssign (pointer)
   0111 3E 04               420 	ld	a,#0x04
   0113 12                  421 	ld	(de),a
                            422 ; genPlus
                            423 ; genPlusIncr
   0114 11 2E 00            424 	ld	de,#_sprites + 0 + 46
                            425 ; genAssign (pointer)
   0117 3E 00               426 	ld	a,#0x00
   0119 12                  427 	ld	(de),a
                            428 ; genPlus
                            429 ; genPlusIncr
   011A 11 2F 00            430 	ld	de,#_sprites + 0 + 47
                            431 ; genAssign (pointer)
   011D 3E 04               432 	ld	a,#0x04
   011F 12                  433 	ld	(de),a
                            434 ; genPlus
                            435 ; genPlusIncr
   0120 11 30 00            436 	ld	de,#_sprites + 0 + 48
                            437 ; genAssign (pointer)
   0123 3E 00               438 	ld	a,#0x00
   0125 12                  439 	ld	(de),a
                            440 ; genPlus
                            441 ; genPlusIncr
   0126 11 31 00            442 	ld	de,#_sprites + 0 + 49
                            443 ; genAssign (pointer)
   0129 3E 80               444 	ld	a,#0x80
   012B 12                  445 	ld	(de),a
                            446 ; genPlus
                            447 ; genPlusIncr
   012C 11 32 00            448 	ld	de,#_sprites + 0 + 50
                            449 ; genAssign (pointer)
   012F 3E 00               450 	ld	a,#0x00
   0131 12                  451 	ld	(de),a
                            452 ; genPlus
                            453 ; genPlusIncr
   0132 11 33 00            454 	ld	de,#_sprites + 0 + 51
                            455 ; genAssign (pointer)
   0135 3E 80               456 	ld	a,#0x80
   0137 12                  457 	ld	(de),a
                            458 ; genPlus
                            459 ; genPlusIncr
   0138 11 34 00            460 	ld	de,#_sprites + 0 + 52
                            461 ; genAssign (pointer)
   013B 3E 00               462 	ld	a,#0x00
   013D 12                  463 	ld	(de),a
                            464 ; genPlus
                            465 ; genPlusIncr
   013E 11 35 00            466 	ld	de,#_sprites + 0 + 53
                            467 ; genAssign (pointer)
   0141 3E C0               468 	ld	a,#0xC0
   0143 12                  469 	ld	(de),a
                            470 ; genPlus
                            471 ; genPlusIncr
   0144 11 36 00            472 	ld	de,#_sprites + 0 + 54
                            473 ; genAssign (pointer)
   0147 3E 00               474 	ld	a,#0x00
   0149 12                  475 	ld	(de),a
                            476 ; genPlus
                            477 ; genPlusIncr
   014A 11 37 00            478 	ld	de,#_sprites + 0 + 55
                            479 ; genAssign (pointer)
   014D 3E 40               480 	ld	a,#0x40
   014F 12                  481 	ld	(de),a
                            482 ; genPlus
                            483 ; genPlusIncr
   0150 11 38 00            484 	ld	de,#_sprites + 0 + 56
                            485 ; genAssign (pointer)
   0153 3E 00               486 	ld	a,#0x00
   0155 12                  487 	ld	(de),a
                            488 ; genPlus
                            489 ; genPlusIncr
   0156 11 39 00            490 	ld	de,#_sprites + 0 + 57
                            491 ; genAssign (pointer)
   0159 3E 40               492 	ld	a,#0x40
   015B 12                  493 	ld	(de),a
                            494 ; genPlus
                            495 ; genPlusIncr
   015C 11 3A 00            496 	ld	de,#_sprites + 0 + 58
                            497 ; genAssign (pointer)
   015F 3E 00               498 	ld	a,#0x00
   0161 12                  499 	ld	(de),a
                            500 ; genPlus
                            501 ; genPlusIncr
   0162 11 3B 00            502 	ld	de,#_sprites + 0 + 59
                            503 ; genAssign (pointer)
   0165 3E 40               504 	ld	a,#0x40
   0167 12                  505 	ld	(de),a
                            506 ; genPlus
                            507 ; genPlusIncr
   0168 11 3C 00            508 	ld	de,#_sprites + 0 + 60
                            509 ; genAssign (pointer)
   016B 3E 00               510 	ld	a,#0x00
   016D 12                  511 	ld	(de),a
                            512 ; genPlus
                            513 ; genPlusIncr
   016E 11 3D 00            514 	ld	de,#_sprites + 0 + 61
                            515 ; genAssign (pointer)
   0171 3E 40               516 	ld	a,#0x40
   0173 12                  517 	ld	(de),a
                            518 ; genPlus
                            519 ; genPlusIncr
   0174 11 3E 00            520 	ld	de,#_sprites + 0 + 62
                            521 ; genAssign (pointer)
   0177 3E 00               522 	ld	a,#0x00
   0179 12                  523 	ld	(de),a
                            524 ; genPlus
                            525 ; genPlusIncr
   017A 11 3F 00            526 	ld	de,#_sprites + 0 + 63
                            527 ; genAssign (pointer)
   017D 3E 40               528 	ld	a,#0x40
   017F 12                  529 	ld	(de),a
                            530 ; genPlus
                            531 ; genPlusIncr
   0180 11 40 00            532 	ld	de,#_sprites + 0 + 64
                            533 ; genAssign (pointer)
   0183 3E 00               534 	ld	a,#0x00
   0185 12                  535 	ld	(de),a
                            536 ; genPlus
                            537 ; genPlusIncr
   0186 11 41 00            538 	ld	de,#_sprites + 0 + 65
                            539 ; genAssign (pointer)
   0189 3E 00               540 	ld	a,#0x00
   018B 12                  541 	ld	(de),a
                            542 ; genPlus
                            543 ; genPlusIncr
   018C 11 42 00            544 	ld	de,#_sprites + 0 + 66
                            545 ; genAssign (pointer)
   018F 3E 00               546 	ld	a,#0x00
   0191 12                  547 	ld	(de),a
                            548 ; genPlus
                            549 ; genPlusIncr
   0192 11 43 00            550 	ld	de,#_sprites + 0 + 67
                            551 ; genAssign (pointer)
   0195 3E 00               552 	ld	a,#0x00
   0197 12                  553 	ld	(de),a
                            554 ; genPlus
                            555 ; genPlusIncr
   0198 11 44 00            556 	ld	de,#_sprites + 0 + 68
                            557 ; genAssign (pointer)
   019B 3E 20               558 	ld	a,#0x20
   019D 12                  559 	ld	(de),a
                            560 ; genPlus
                            561 ; genPlusIncr
   019E 11 45 00            562 	ld	de,#_sprites + 0 + 69
                            563 ; genAssign (pointer)
   01A1 3E 20               564 	ld	a,#0x20
   01A3 12                  565 	ld	(de),a
                            566 ; genPlus
                            567 ; genPlusIncr
   01A4 11 46 00            568 	ld	de,#_sprites + 0 + 70
                            569 ; genAssign (pointer)
   01A7 3E 20               570 	ld	a,#0x20
   01A9 12                  571 	ld	(de),a
                            572 ; genPlus
                            573 ; genPlusIncr
   01AA 11 47 00            574 	ld	de,#_sprites + 0 + 71
                            575 ; genAssign (pointer)
   01AD 3E 20               576 	ld	a,#0x20
   01AF 12                  577 	ld	(de),a
                            578 ; genPlus
                            579 ; genPlusIncr
   01B0 11 48 00            580 	ld	de,#_sprites + 0 + 72
                            581 ; genAssign (pointer)
   01B3 3E 20               582 	ld	a,#0x20
   01B5 12                  583 	ld	(de),a
                            584 ; genPlus
                            585 ; genPlusIncr
   01B6 11 49 00            586 	ld	de,#_sprites + 0 + 73
                            587 ; genAssign (pointer)
   01B9 3E 20               588 	ld	a,#0x20
   01BB 12                  589 	ld	(de),a
                            590 ; genPlus
                            591 ; genPlusIncr
   01BC 11 4A 00            592 	ld	de,#_sprites + 0 + 74
                            593 ; genAssign (pointer)
   01BF 3E 22               594 	ld	a,#0x22
   01C1 12                  595 	ld	(de),a
                            596 ; genPlus
                            597 ; genPlusIncr
   01C2 11 4B 00            598 	ld	de,#_sprites + 0 + 75
                            599 ; genAssign (pointer)
   01C5 3E 22               600 	ld	a,#0x22
   01C7 12                  601 	ld	(de),a
                            602 ; genPlus
                            603 ; genPlusIncr
   01C8 11 4C 00            604 	ld	de,#_sprites + 0 + 76
                            605 ; genAssign (pointer)
   01CB 3E 27               606 	ld	a,#0x27
   01CD 12                  607 	ld	(de),a
                            608 ; genPlus
                            609 ; genPlusIncr
   01CE 11 4D 00            610 	ld	de,#_sprites + 0 + 77
                            611 ; genAssign (pointer)
   01D1 3E 27               612 	ld	a,#0x27
   01D3 12                  613 	ld	(de),a
                            614 ; genPlus
                            615 ; genPlusIncr
   01D4 11 4E 00            616 	ld	de,#_sprites + 0 + 78
                            617 ; genAssign (pointer)
   01D7 3E 3F               618 	ld	a,#0x3F
   01D9 12                  619 	ld	(de),a
                            620 ; genPlus
                            621 ; genPlusIncr
   01DA 11 4F 00            622 	ld	de,#_sprites + 0 + 79
                            623 ; genAssign (pointer)
   01DD 3E 3F               624 	ld	a,#0x3F
   01DF 12                  625 	ld	(de),a
                            626 ; genPlus
                            627 ; genPlusIncr
   01E0 11 50 00            628 	ld	de,#_sprites + 0 + 80
                            629 ; genAssign (pointer)
   01E3 3E 00               630 	ld	a,#0x00
   01E5 12                  631 	ld	(de),a
                            632 ; genPlus
                            633 ; genPlusIncr
   01E6 11 51 00            634 	ld	de,#_sprites + 0 + 81
                            635 ; genAssign (pointer)
   01E9 3E 00               636 	ld	a,#0x00
   01EB 12                  637 	ld	(de),a
                            638 ; genPlus
                            639 ; genPlusIncr
   01EC 11 52 00            640 	ld	de,#_sprites + 0 + 82
                            641 ; genAssign (pointer)
   01EF 3E 00               642 	ld	a,#0x00
   01F1 12                  643 	ld	(de),a
                            644 ; genPlus
                            645 ; genPlusIncr
   01F2 11 53 00            646 	ld	de,#_sprites + 0 + 83
                            647 ; genAssign (pointer)
   01F5 3E 00               648 	ld	a,#0x00
   01F7 12                  649 	ld	(de),a
                            650 ; genPlus
                            651 ; genPlusIncr
   01F8 11 54 00            652 	ld	de,#_sprites + 0 + 84
                            653 ; genAssign (pointer)
   01FB 3E 00               654 	ld	a,#0x00
   01FD 12                  655 	ld	(de),a
                            656 ; genPlus
                            657 ; genPlusIncr
   01FE 11 55 00            658 	ld	de,#_sprites + 0 + 85
                            659 ; genAssign (pointer)
   0201 3E 00               660 	ld	a,#0x00
   0203 12                  661 	ld	(de),a
                            662 ; genPlus
                            663 ; genPlusIncr
   0204 11 56 00            664 	ld	de,#_sprites + 0 + 86
                            665 ; genAssign (pointer)
   0207 3E 00               666 	ld	a,#0x00
   0209 12                  667 	ld	(de),a
                            668 ; genPlus
                            669 ; genPlusIncr
   020A 11 57 00            670 	ld	de,#_sprites + 0 + 87
                            671 ; genAssign (pointer)
   020D 3E 00               672 	ld	a,#0x00
   020F 12                  673 	ld	(de),a
                            674 ; genPlus
                            675 ; genPlusIncr
   0210 11 58 00            676 	ld	de,#_sprites + 0 + 88
                            677 ; genAssign (pointer)
   0213 3E 00               678 	ld	a,#0x00
   0215 12                  679 	ld	(de),a
                            680 ; genPlus
                            681 ; genPlusIncr
   0216 11 59 00            682 	ld	de,#_sprites + 0 + 89
                            683 ; genAssign (pointer)
   0219 3E 00               684 	ld	a,#0x00
   021B 12                  685 	ld	(de),a
                            686 ; genPlus
                            687 ; genPlusIncr
   021C 11 5A 00            688 	ld	de,#_sprites + 0 + 90
                            689 ; genAssign (pointer)
   021F 3E 80               690 	ld	a,#0x80
   0221 12                  691 	ld	(de),a
                            692 ; genPlus
                            693 ; genPlusIncr
   0222 11 5B 00            694 	ld	de,#_sprites + 0 + 91
                            695 ; genAssign (pointer)
   0225 3E 80               696 	ld	a,#0x80
   0227 12                  697 	ld	(de),a
                            698 ; genPlus
                            699 ; genPlusIncr
   0228 11 5C 00            700 	ld	de,#_sprites + 0 + 92
                            701 ; genAssign (pointer)
   022B 3E C0               702 	ld	a,#0xC0
   022D 12                  703 	ld	(de),a
                            704 ; genPlus
                            705 ; genPlusIncr
   022E 11 5D 00            706 	ld	de,#_sprites + 0 + 93
                            707 ; genAssign (pointer)
   0231 3E C0               708 	ld	a,#0xC0
   0233 12                  709 	ld	(de),a
                            710 ; genPlus
                            711 ; genPlusIncr
   0234 11 5E 00            712 	ld	de,#_sprites + 0 + 94
                            713 ; genAssign (pointer)
   0237 3E F8               714 	ld	a,#0xF8
   0239 12                  715 	ld	(de),a
                            716 ; genPlus
                            717 ; genPlusIncr
   023A 11 5F 00            718 	ld	de,#_sprites + 0 + 95
                            719 ; genAssign (pointer)
   023D 3E F8               720 	ld	a,#0xF8
   023F 12                  721 	ld	(de),a
                            722 ; genPlus
                            723 ; genPlusIncr
   0240 11 60 00            724 	ld	de,#_sprites + 0 + 96
                            725 ; genAssign (pointer)
   0243 3E 0F               726 	ld	a,#0x0F
   0245 12                  727 	ld	(de),a
                            728 ; genPlus
                            729 ; genPlusIncr
   0246 11 61 00            730 	ld	de,#_sprites + 0 + 97
                            731 ; genAssign (pointer)
   0249 3E 0F               732 	ld	a,#0x0F
   024B 12                  733 	ld	(de),a
                            734 ; genPlus
                            735 ; genPlusIncr
   024C 11 62 00            736 	ld	de,#_sprites + 0 + 98
                            737 ; genAssign (pointer)
   024F 3E 0F               738 	ld	a,#0x0F
   0251 12                  739 	ld	(de),a
                            740 ; genPlus
                            741 ; genPlusIncr
   0252 11 63 00            742 	ld	de,#_sprites + 0 + 99
                            743 ; genAssign (pointer)
   0255 3E 0F               744 	ld	a,#0x0F
   0257 12                  745 	ld	(de),a
                            746 ; genPlus
                            747 ; genPlusIncr
   0258 11 64 00            748 	ld	de,#_sprites + 0 + 100
                            749 ; genAssign (pointer)
   025B 3E 1F               750 	ld	a,#0x1F
   025D 12                  751 	ld	(de),a
                            752 ; genPlus
                            753 ; genPlusIncr
   025E 11 65 00            754 	ld	de,#_sprites + 0 + 101
                            755 ; genAssign (pointer)
   0261 3E 1F               756 	ld	a,#0x1F
   0263 12                  757 	ld	(de),a
                            758 ; genPlus
                            759 ; genPlusIncr
   0264 11 66 00            760 	ld	de,#_sprites + 0 + 102
                            761 ; genAssign (pointer)
   0267 3E 10               762 	ld	a,#0x10
   0269 12                  763 	ld	(de),a
                            764 ; genPlus
                            765 ; genPlusIncr
   026A 11 67 00            766 	ld	de,#_sprites + 0 + 103
                            767 ; genAssign (pointer)
   026D 3E 10               768 	ld	a,#0x10
   026F 12                  769 	ld	(de),a
                            770 ; genPlus
                            771 ; genPlusIncr
   0270 11 68 00            772 	ld	de,#_sprites + 0 + 104
                            773 ; genAssign (pointer)
   0273 3E 10               774 	ld	a,#0x10
   0275 12                  775 	ld	(de),a
                            776 ; genPlus
                            777 ; genPlusIncr
   0276 11 69 00            778 	ld	de,#_sprites + 0 + 105
                            779 ; genAssign (pointer)
   0279 3E 10               780 	ld	a,#0x10
   027B 12                  781 	ld	(de),a
                            782 ; genPlus
                            783 ; genPlusIncr
   027C 11 6A 00            784 	ld	de,#_sprites + 0 + 106
                            785 ; genAssign (pointer)
   027F 3E 00               786 	ld	a,#0x00
   0281 12                  787 	ld	(de),a
                            788 ; genPlus
                            789 ; genPlusIncr
   0282 11 6B 00            790 	ld	de,#_sprites + 0 + 107
                            791 ; genAssign (pointer)
   0285 3E 00               792 	ld	a,#0x00
   0287 12                  793 	ld	(de),a
                            794 ; genPlus
                            795 ; genPlusIncr
   0288 11 6C 00            796 	ld	de,#_sprites + 0 + 108
                            797 ; genAssign (pointer)
   028B 3E 00               798 	ld	a,#0x00
   028D 12                  799 	ld	(de),a
                            800 ; genPlus
                            801 ; genPlusIncr
   028E 11 6D 00            802 	ld	de,#_sprites + 0 + 109
                            803 ; genAssign (pointer)
   0291 3E 00               804 	ld	a,#0x00
   0293 12                  805 	ld	(de),a
                            806 ; genPlus
                            807 ; genPlusIncr
   0294 11 6E 00            808 	ld	de,#_sprites + 0 + 110
                            809 ; genAssign (pointer)
   0297 3E 00               810 	ld	a,#0x00
   0299 12                  811 	ld	(de),a
                            812 ; genPlus
                            813 ; genPlusIncr
   029A 11 6F 00            814 	ld	de,#_sprites + 0 + 111
                            815 ; genAssign (pointer)
   029D 3E 00               816 	ld	a,#0x00
   029F 12                  817 	ld	(de),a
                            818 ; genPlus
                            819 ; genPlusIncr
   02A0 11 70 00            820 	ld	de,#_sprites + 0 + 112
                            821 ; genAssign (pointer)
   02A3 3E E0               822 	ld	a,#0xE0
   02A5 12                  823 	ld	(de),a
                            824 ; genPlus
                            825 ; genPlusIncr
   02A6 11 71 00            826 	ld	de,#_sprites + 0 + 113
                            827 ; genAssign (pointer)
   02A9 3E E0               828 	ld	a,#0xE0
   02AB 12                  829 	ld	(de),a
                            830 ; genPlus
                            831 ; genPlusIncr
   02AC 11 72 00            832 	ld	de,#_sprites + 0 + 114
                            833 ; genAssign (pointer)
   02AF 3E E0               834 	ld	a,#0xE0
   02B1 12                  835 	ld	(de),a
                            836 ; genPlus
                            837 ; genPlusIncr
   02B2 11 73 00            838 	ld	de,#_sprites + 0 + 115
                            839 ; genAssign (pointer)
   02B5 3E E0               840 	ld	a,#0xE0
   02B7 12                  841 	ld	(de),a
                            842 ; genPlus
                            843 ; genPlusIncr
   02B8 11 74 00            844 	ld	de,#_sprites + 0 + 116
                            845 ; genAssign (pointer)
   02BB 3E F0               846 	ld	a,#0xF0
   02BD 12                  847 	ld	(de),a
                            848 ; genPlus
                            849 ; genPlusIncr
   02BE 11 75 00            850 	ld	de,#_sprites + 0 + 117
                            851 ; genAssign (pointer)
   02C1 3E F0               852 	ld	a,#0xF0
   02C3 12                  853 	ld	(de),a
                            854 ; genPlus
                            855 ; genPlusIncr
   02C4 11 76 00            856 	ld	de,#_sprites + 0 + 118
                            857 ; genAssign (pointer)
   02C7 3E 10               858 	ld	a,#0x10
   02C9 12                  859 	ld	(de),a
                            860 ; genPlus
                            861 ; genPlusIncr
   02CA 11 77 00            862 	ld	de,#_sprites + 0 + 119
                            863 ; genAssign (pointer)
   02CD 3E 10               864 	ld	a,#0x10
   02CF 12                  865 	ld	(de),a
                            866 ; genPlus
                            867 ; genPlusIncr
   02D0 11 78 00            868 	ld	de,#_sprites + 0 + 120
                            869 ; genAssign (pointer)
   02D3 3E 10               870 	ld	a,#0x10
   02D5 12                  871 	ld	(de),a
                            872 ; genPlus
                            873 ; genPlusIncr
   02D6 11 79 00            874 	ld	de,#_sprites + 0 + 121
                            875 ; genAssign (pointer)
   02D9 3E 10               876 	ld	a,#0x10
   02DB 12                  877 	ld	(de),a
                            878 ; genPlus
                            879 ; genPlusIncr
   02DC 11 7A 00            880 	ld	de,#_sprites + 0 + 122
                            881 ; genAssign (pointer)
   02DF 3E 00               882 	ld	a,#0x00
   02E1 12                  883 	ld	(de),a
                            884 ; genPlus
                            885 ; genPlusIncr
   02E2 11 7B 00            886 	ld	de,#_sprites + 0 + 123
                            887 ; genAssign (pointer)
   02E5 3E 00               888 	ld	a,#0x00
   02E7 12                  889 	ld	(de),a
                            890 ; genPlus
                            891 ; genPlusIncr
   02E8 11 7C 00            892 	ld	de,#_sprites + 0 + 124
                            893 ; genAssign (pointer)
   02EB 3E 00               894 	ld	a,#0x00
   02ED 12                  895 	ld	(de),a
                            896 ; genPlus
                            897 ; genPlusIncr
   02EE 11 7D 00            898 	ld	de,#_sprites + 0 + 125
                            899 ; genAssign (pointer)
   02F1 3E 00               900 	ld	a,#0x00
   02F3 12                  901 	ld	(de),a
                            902 ; genPlus
                            903 ; genPlusIncr
   02F4 11 7E 00            904 	ld	de,#_sprites + 0 + 126
                            905 ; genAssign (pointer)
   02F7 3E 00               906 	ld	a,#0x00
   02F9 12                  907 	ld	(de),a
                            908 ; genPlus
                            909 ; genPlusIncr
   02FA 11 7F 00            910 	ld	de,#_sprites + 0 + 127
                            911 ; genAssign (pointer)
   02FD 3E 00               912 	ld	a,#0x00
   02FF 12                  913 	ld	(de),a
                            914 ;	main.c 121
                            915 ; genAssign (pointer)
   0300 11 80 00            916 	ld	de,#_bgTiles + 0
   0303 3E 00               917 	ld	a,#0x00
   0305 12                  918 	ld	(de),a
                            919 ; genPlus
                            920 ; genPlusIncr
   0306 11 81 00            921 	ld	de,#_bgTiles + 0 + 1
                            922 ; genAssign (pointer)
   0309 3E 00               923 	ld	a,#0x00
   030B 12                  924 	ld	(de),a
                            925 ; genPlus
                            926 ; genPlusIncr
   030C 11 82 00            927 	ld	de,#_bgTiles + 0 + 2
                            928 ; genAssign (pointer)
   030F 3E 00               929 	ld	a,#0x00
   0311 12                  930 	ld	(de),a
                            931 ; genPlus
                            932 ; genPlusIncr
   0312 11 83 00            933 	ld	de,#_bgTiles + 0 + 3
                            934 ; genAssign (pointer)
   0315 3E 00               935 	ld	a,#0x00
   0317 12                  936 	ld	(de),a
                            937 ; genPlus
                            938 ; genPlusIncr
   0318 11 84 00            939 	ld	de,#_bgTiles + 0 + 4
                            940 ; genAssign (pointer)
   031B 3E 00               941 	ld	a,#0x00
   031D 12                  942 	ld	(de),a
                            943 ; genPlus
                            944 ; genPlusIncr
   031E 11 85 00            945 	ld	de,#_bgTiles + 0 + 5
                            946 ; genAssign (pointer)
   0321 3E 00               947 	ld	a,#0x00
   0323 12                  948 	ld	(de),a
                            949 ; genPlus
                            950 ; genPlusIncr
   0324 11 86 00            951 	ld	de,#_bgTiles + 0 + 6
                            952 ; genAssign (pointer)
   0327 3E 00               953 	ld	a,#0x00
   0329 12                  954 	ld	(de),a
                            955 ; genPlus
                            956 ; genPlusIncr
   032A 11 87 00            957 	ld	de,#_bgTiles + 0 + 7
                            958 ; genAssign (pointer)
   032D 3E 00               959 	ld	a,#0x00
   032F 12                  960 	ld	(de),a
                            961 ; genPlus
                            962 ; genPlusIncr
   0330 11 88 00            963 	ld	de,#_bgTiles + 0 + 8
                            964 ; genAssign (pointer)
   0333 3E 00               965 	ld	a,#0x00
   0335 12                  966 	ld	(de),a
                            967 ; genPlus
                            968 ; genPlusIncr
   0336 11 89 00            969 	ld	de,#_bgTiles + 0 + 9
                            970 ; genAssign (pointer)
   0339 3E 00               971 	ld	a,#0x00
   033B 12                  972 	ld	(de),a
                            973 ; genPlus
                            974 ; genPlusIncr
   033C 11 8A 00            975 	ld	de,#_bgTiles + 0 + 10
                            976 ; genAssign (pointer)
   033F 3E 00               977 	ld	a,#0x00
   0341 12                  978 	ld	(de),a
                            979 ; genPlus
                            980 ; genPlusIncr
   0342 11 8B 00            981 	ld	de,#_bgTiles + 0 + 11
                            982 ; genAssign (pointer)
   0345 3E 00               983 	ld	a,#0x00
   0347 12                  984 	ld	(de),a
                            985 ; genPlus
                            986 ; genPlusIncr
   0348 11 8C 00            987 	ld	de,#_bgTiles + 0 + 12
                            988 ; genAssign (pointer)
   034B 3E 00               989 	ld	a,#0x00
   034D 12                  990 	ld	(de),a
                            991 ; genPlus
                            992 ; genPlusIncr
   034E 11 8D 00            993 	ld	de,#_bgTiles + 0 + 13
                            994 ; genAssign (pointer)
   0351 3E 00               995 	ld	a,#0x00
   0353 12                  996 	ld	(de),a
                            997 ; genPlus
                            998 ; genPlusIncr
   0354 11 8E 00            999 	ld	de,#_bgTiles + 0 + 14
                           1000 ; genAssign (pointer)
   0357 3E 00              1001 	ld	a,#0x00
   0359 12                 1002 	ld	(de),a
                           1003 ; genPlus
                           1004 ; genPlusIncr
   035A 11 8F 00           1005 	ld	de,#_bgTiles + 0 + 15
                           1006 ; genAssign (pointer)
   035D 3E 00              1007 	ld	a,#0x00
   035F 12                 1008 	ld	(de),a
                           1009 ; genPlus
                           1010 ; genPlusIncr
   0360 11 90 00           1011 	ld	de,#_bgTiles + 0 + 16
                           1012 ; genAssign (pointer)
   0363 3E FF              1013 	ld	a,#0xFF
   0365 12                 1014 	ld	(de),a
                           1015 ; genPlus
                           1016 ; genPlusIncr
   0366 11 91 00           1017 	ld	de,#_bgTiles + 0 + 17
                           1018 ; genAssign (pointer)
   0369 3E 00              1019 	ld	a,#0x00
   036B 12                 1020 	ld	(de),a
                           1021 ; genPlus
                           1022 ; genPlusIncr
   036C 11 92 00           1023 	ld	de,#_bgTiles + 0 + 18
                           1024 ; genAssign (pointer)
   036F 3E FF              1025 	ld	a,#0xFF
   0371 12                 1026 	ld	(de),a
                           1027 ; genPlus
                           1028 ; genPlusIncr
   0372 11 93 00           1029 	ld	de,#_bgTiles + 0 + 19
                           1030 ; genAssign (pointer)
   0375 3E 00              1031 	ld	a,#0x00
   0377 12                 1032 	ld	(de),a
                           1033 ; genPlus
                           1034 ; genPlusIncr
   0378 11 94 00           1035 	ld	de,#_bgTiles + 0 + 20
                           1036 ; genAssign (pointer)
   037B 3E FF              1037 	ld	a,#0xFF
   037D 12                 1038 	ld	(de),a
                           1039 ; genPlus
                           1040 ; genPlusIncr
   037E 11 95 00           1041 	ld	de,#_bgTiles + 0 + 21
                           1042 ; genAssign (pointer)
   0381 3E 00              1043 	ld	a,#0x00
   0383 12                 1044 	ld	(de),a
                           1045 ; genPlus
                           1046 ; genPlusIncr
   0384 11 96 00           1047 	ld	de,#_bgTiles + 0 + 22
                           1048 ; genAssign (pointer)
   0387 3E FF              1049 	ld	a,#0xFF
   0389 12                 1050 	ld	(de),a
                           1051 ; genPlus
                           1052 ; genPlusIncr
   038A 11 97 00           1053 	ld	de,#_bgTiles + 0 + 23
                           1054 ; genAssign (pointer)
   038D 3E 00              1055 	ld	a,#0x00
   038F 12                 1056 	ld	(de),a
                           1057 ; genPlus
                           1058 ; genPlusIncr
   0390 11 98 00           1059 	ld	de,#_bgTiles + 0 + 24
                           1060 ; genAssign (pointer)
   0393 3E FF              1061 	ld	a,#0xFF
   0395 12                 1062 	ld	(de),a
                           1063 ; genPlus
                           1064 ; genPlusIncr
   0396 11 99 00           1065 	ld	de,#_bgTiles + 0 + 25
                           1066 ; genAssign (pointer)
   0399 3E 00              1067 	ld	a,#0x00
   039B 12                 1068 	ld	(de),a
                           1069 ; genPlus
                           1070 ; genPlusIncr
   039C 11 9A 00           1071 	ld	de,#_bgTiles + 0 + 26
                           1072 ; genAssign (pointer)
   039F 3E FF              1073 	ld	a,#0xFF
   03A1 12                 1074 	ld	(de),a
                           1075 ; genPlus
                           1076 ; genPlusIncr
   03A2 11 9B 00           1077 	ld	de,#_bgTiles + 0 + 27
                           1078 ; genAssign (pointer)
   03A5 3E 00              1079 	ld	a,#0x00
   03A7 12                 1080 	ld	(de),a
                           1081 ; genPlus
                           1082 ; genPlusIncr
   03A8 11 9C 00           1083 	ld	de,#_bgTiles + 0 + 28
                           1084 ; genAssign (pointer)
   03AB 3E FF              1085 	ld	a,#0xFF
   03AD 12                 1086 	ld	(de),a
                           1087 ; genPlus
                           1088 ; genPlusIncr
   03AE 11 9D 00           1089 	ld	de,#_bgTiles + 0 + 29
                           1090 ; genAssign (pointer)
   03B1 3E 00              1091 	ld	a,#0x00
   03B3 12                 1092 	ld	(de),a
                           1093 ; genPlus
                           1094 ; genPlusIncr
   03B4 11 9E 00           1095 	ld	de,#_bgTiles + 0 + 30
                           1096 ; genAssign (pointer)
   03B7 3E FF              1097 	ld	a,#0xFF
   03B9 12                 1098 	ld	(de),a
                           1099 ; genPlus
                           1100 ; genPlusIncr
   03BA 11 9F 00           1101 	ld	de,#_bgTiles + 0 + 31
                           1102 ; genAssign (pointer)
   03BD 3E 00              1103 	ld	a,#0x00
   03BF 12                 1104 	ld	(de),a
                           1105 ; genPlus
                           1106 ; genPlusIncr
   03C0 11 A0 00           1107 	ld	de,#_bgTiles + 0 + 32
                           1108 ; genAssign (pointer)
   03C3 3E 00              1109 	ld	a,#0x00
   03C5 12                 1110 	ld	(de),a
                           1111 ; genPlus
                           1112 ; genPlusIncr
   03C6 11 A1 00           1113 	ld	de,#_bgTiles + 0 + 33
                           1114 ; genAssign (pointer)
   03C9 3E FF              1115 	ld	a,#0xFF
   03CB 12                 1116 	ld	(de),a
                           1117 ; genPlus
                           1118 ; genPlusIncr
   03CC 11 A2 00           1119 	ld	de,#_bgTiles + 0 + 34
                           1120 ; genAssign (pointer)
   03CF 3E 00              1121 	ld	a,#0x00
   03D1 12                 1122 	ld	(de),a
                           1123 ; genPlus
                           1124 ; genPlusIncr
   03D2 11 A3 00           1125 	ld	de,#_bgTiles + 0 + 35
                           1126 ; genAssign (pointer)
   03D5 3E FF              1127 	ld	a,#0xFF
   03D7 12                 1128 	ld	(de),a
                           1129 ; genPlus
                           1130 ; genPlusIncr
   03D8 11 A4 00           1131 	ld	de,#_bgTiles + 0 + 36
                           1132 ; genAssign (pointer)
   03DB 3E 00              1133 	ld	a,#0x00
   03DD 12                 1134 	ld	(de),a
                           1135 ; genPlus
                           1136 ; genPlusIncr
   03DE 11 A5 00           1137 	ld	de,#_bgTiles + 0 + 37
                           1138 ; genAssign (pointer)
   03E1 3E FF              1139 	ld	a,#0xFF
   03E3 12                 1140 	ld	(de),a
                           1141 ; genPlus
                           1142 ; genPlusIncr
   03E4 11 A6 00           1143 	ld	de,#_bgTiles + 0 + 38
                           1144 ; genAssign (pointer)
   03E7 3E 00              1145 	ld	a,#0x00
   03E9 12                 1146 	ld	(de),a
                           1147 ; genPlus
                           1148 ; genPlusIncr
   03EA 11 A7 00           1149 	ld	de,#_bgTiles + 0 + 39
                           1150 ; genAssign (pointer)
   03ED 3E FF              1151 	ld	a,#0xFF
   03EF 12                 1152 	ld	(de),a
                           1153 ; genPlus
                           1154 ; genPlusIncr
   03F0 11 A8 00           1155 	ld	de,#_bgTiles + 0 + 40
                           1156 ; genAssign (pointer)
   03F3 3E 00              1157 	ld	a,#0x00
   03F5 12                 1158 	ld	(de),a
                           1159 ; genPlus
                           1160 ; genPlusIncr
   03F6 11 A9 00           1161 	ld	de,#_bgTiles + 0 + 41
                           1162 ; genAssign (pointer)
   03F9 3E FF              1163 	ld	a,#0xFF
   03FB 12                 1164 	ld	(de),a
                           1165 ; genPlus
                           1166 ; genPlusIncr
   03FC 11 AA 00           1167 	ld	de,#_bgTiles + 0 + 42
                           1168 ; genAssign (pointer)
   03FF 3E 00              1169 	ld	a,#0x00
   0401 12                 1170 	ld	(de),a
                           1171 ; genPlus
                           1172 ; genPlusIncr
   0402 11 AB 00           1173 	ld	de,#_bgTiles + 0 + 43
                           1174 ; genAssign (pointer)
   0405 3E FF              1175 	ld	a,#0xFF
   0407 12                 1176 	ld	(de),a
                           1177 ; genPlus
                           1178 ; genPlusIncr
   0408 11 AC 00           1179 	ld	de,#_bgTiles + 0 + 44
                           1180 ; genAssign (pointer)
   040B 3E 00              1181 	ld	a,#0x00
   040D 12                 1182 	ld	(de),a
                           1183 ; genPlus
                           1184 ; genPlusIncr
   040E 11 AD 00           1185 	ld	de,#_bgTiles + 0 + 45
                           1186 ; genAssign (pointer)
   0411 3E FF              1187 	ld	a,#0xFF
   0413 12                 1188 	ld	(de),a
                           1189 ; genPlus
                           1190 ; genPlusIncr
   0414 11 AE 00           1191 	ld	de,#_bgTiles + 0 + 46
                           1192 ; genAssign (pointer)
   0417 3E 00              1193 	ld	a,#0x00
   0419 12                 1194 	ld	(de),a
                           1195 ; genPlus
                           1196 ; genPlusIncr
   041A 11 AF 00           1197 	ld	de,#_bgTiles + 0 + 47
                           1198 ; genAssign (pointer)
   041D 3E FF              1199 	ld	a,#0xFF
   041F 12                 1200 	ld	(de),a
                           1201 ; genPlus
                           1202 ; genPlusIncr
   0420 11 B0 00           1203 	ld	de,#_bgTiles + 0 + 48
                           1204 ; genAssign (pointer)
   0423 3E FF              1205 	ld	a,#0xFF
   0425 12                 1206 	ld	(de),a
                           1207 ; genPlus
                           1208 ; genPlusIncr
   0426 11 B1 00           1209 	ld	de,#_bgTiles + 0 + 49
                           1210 ; genAssign (pointer)
   0429 3E FF              1211 	ld	a,#0xFF
   042B 12                 1212 	ld	(de),a
                           1213 ; genPlus
                           1214 ; genPlusIncr
   042C 11 B2 00           1215 	ld	de,#_bgTiles + 0 + 50
                           1216 ; genAssign (pointer)
   042F 3E FF              1217 	ld	a,#0xFF
   0431 12                 1218 	ld	(de),a
                           1219 ; genPlus
                           1220 ; genPlusIncr
   0432 11 B3 00           1221 	ld	de,#_bgTiles + 0 + 51
                           1222 ; genAssign (pointer)
   0435 3E FF              1223 	ld	a,#0xFF
   0437 12                 1224 	ld	(de),a
                           1225 ; genPlus
                           1226 ; genPlusIncr
   0438 11 B4 00           1227 	ld	de,#_bgTiles + 0 + 52
                           1228 ; genAssign (pointer)
   043B 3E FF              1229 	ld	a,#0xFF
   043D 12                 1230 	ld	(de),a
                           1231 ; genPlus
                           1232 ; genPlusIncr
   043E 11 B5 00           1233 	ld	de,#_bgTiles + 0 + 53
                           1234 ; genAssign (pointer)
   0441 3E FF              1235 	ld	a,#0xFF
   0443 12                 1236 	ld	(de),a
                           1237 ; genPlus
                           1238 ; genPlusIncr
   0444 11 B6 00           1239 	ld	de,#_bgTiles + 0 + 54
                           1240 ; genAssign (pointer)
   0447 3E FF              1241 	ld	a,#0xFF
   0449 12                 1242 	ld	(de),a
                           1243 ; genPlus
                           1244 ; genPlusIncr
   044A 11 B7 00           1245 	ld	de,#_bgTiles + 0 + 55
                           1246 ; genAssign (pointer)
   044D 3E FF              1247 	ld	a,#0xFF
   044F 12                 1248 	ld	(de),a
                           1249 ; genPlus
                           1250 ; genPlusIncr
   0450 11 B8 00           1251 	ld	de,#_bgTiles + 0 + 56
                           1252 ; genAssign (pointer)
   0453 3E FF              1253 	ld	a,#0xFF
   0455 12                 1254 	ld	(de),a
                           1255 ; genPlus
                           1256 ; genPlusIncr
   0456 11 B9 00           1257 	ld	de,#_bgTiles + 0 + 57
                           1258 ; genAssign (pointer)
   0459 3E FF              1259 	ld	a,#0xFF
   045B 12                 1260 	ld	(de),a
                           1261 ; genPlus
                           1262 ; genPlusIncr
   045C 11 BA 00           1263 	ld	de,#_bgTiles + 0 + 58
                           1264 ; genAssign (pointer)
   045F 3E FF              1265 	ld	a,#0xFF
   0461 12                 1266 	ld	(de),a
                           1267 ; genPlus
                           1268 ; genPlusIncr
   0462 11 BB 00           1269 	ld	de,#_bgTiles + 0 + 59
                           1270 ; genAssign (pointer)
   0465 3E FF              1271 	ld	a,#0xFF
   0467 12                 1272 	ld	(de),a
                           1273 ; genPlus
                           1274 ; genPlusIncr
   0468 11 BC 00           1275 	ld	de,#_bgTiles + 0 + 60
                           1276 ; genAssign (pointer)
   046B 3E FF              1277 	ld	a,#0xFF
   046D 12                 1278 	ld	(de),a
                           1279 ; genPlus
                           1280 ; genPlusIncr
   046E 11 BD 00           1281 	ld	de,#_bgTiles + 0 + 61
                           1282 ; genAssign (pointer)
   0471 3E FF              1283 	ld	a,#0xFF
   0473 12                 1284 	ld	(de),a
                           1285 ; genPlus
                           1286 ; genPlusIncr
   0474 11 BE 00           1287 	ld	de,#_bgTiles + 0 + 62
                           1288 ; genAssign (pointer)
   0477 3E FF              1289 	ld	a,#0xFF
   0479 12                 1290 	ld	(de),a
                           1291 ; genPlus
                           1292 ; genPlusIncr
   047A 11 BF 00           1293 	ld	de,#_bgTiles + 0 + 63
                           1294 ; genAssign (pointer)
   047D 3E FF              1295 	ld	a,#0xFF
   047F 12                 1296 	ld	(de),a
                           1297 ;	main.c 121
                           1298 ; genAssign (pointer)
   0480 11 C0 00           1299 	ld	de,#_playfield + 0
   0483 3E 01              1300 	ld	a,#0x01
   0485 12                 1301 	ld	(de),a
                           1302 ; genPlus
                           1303 ; genPlusIncr
   0486 11 C1 00           1304 	ld	de,#_playfield + 0 + 1
                           1305 ; genAssign (pointer)
   0489 3E 01              1306 	ld	a,#0x01
   048B 12                 1307 	ld	(de),a
                           1308 ; genPlus
                           1309 ; genPlusIncr
   048C 11 C2 00           1310 	ld	de,#_playfield + 0 + 2
                           1311 ; genAssign (pointer)
   048F 3E 01              1312 	ld	a,#0x01
   0491 12                 1313 	ld	(de),a
                           1314 ; genPlus
                           1315 ; genPlusIncr
   0492 11 C3 00           1316 	ld	de,#_playfield + 0 + 3
                           1317 ; genAssign (pointer)
   0495 3E 01              1318 	ld	a,#0x01
   0497 12                 1319 	ld	(de),a
                           1320 ; genPlus
                           1321 ; genPlusIncr
   0498 11 C4 00           1322 	ld	de,#_playfield + 0 + 4
                           1323 ; genAssign (pointer)
   049B 3E 01              1324 	ld	a,#0x01
   049D 12                 1325 	ld	(de),a
                           1326 ; genPlus
                           1327 ; genPlusIncr
   049E 11 C5 00           1328 	ld	de,#_playfield + 0 + 5
                           1329 ; genAssign (pointer)
   04A1 3E 01              1330 	ld	a,#0x01
   04A3 12                 1331 	ld	(de),a
                           1332 ; genPlus
                           1333 ; genPlusIncr
   04A4 11 C6 00           1334 	ld	de,#_playfield + 0 + 6
                           1335 ; genAssign (pointer)
   04A7 3E 01              1336 	ld	a,#0x01
   04A9 12                 1337 	ld	(de),a
                           1338 ; genPlus
                           1339 ; genPlusIncr
   04AA 11 C7 00           1340 	ld	de,#_playfield + 0 + 7
                           1341 ; genAssign (pointer)
   04AD 3E 01              1342 	ld	a,#0x01
   04AF 12                 1343 	ld	(de),a
                           1344 ; genPlus
                           1345 ; genPlusIncr
   04B0 11 C8 00           1346 	ld	de,#_playfield + 0 + 8
                           1347 ; genAssign (pointer)
   04B3 3E 01              1348 	ld	a,#0x01
   04B5 12                 1349 	ld	(de),a
                           1350 ; genPlus
                           1351 ; genPlusIncr
   04B6 11 C9 00           1352 	ld	de,#_playfield + 0 + 9
                           1353 ; genAssign (pointer)
   04B9 3E 01              1354 	ld	a,#0x01
   04BB 12                 1355 	ld	(de),a
                           1356 ; genPlus
                           1357 ; genPlusIncr
   04BC 11 CA 00           1358 	ld	de,#_playfield + 0 + 10
                           1359 ; genAssign (pointer)
   04BF 3E 01              1360 	ld	a,#0x01
   04C1 12                 1361 	ld	(de),a
                           1362 ; genPlus
                           1363 ; genPlusIncr
   04C2 11 CB 00           1364 	ld	de,#_playfield + 0 + 11
                           1365 ; genAssign (pointer)
   04C5 3E 01              1366 	ld	a,#0x01
   04C7 12                 1367 	ld	(de),a
                           1368 ; genPlus
                           1369 ; genPlusIncr
   04C8 11 CC 00           1370 	ld	de,#_playfield + 0 + 12
                           1371 ; genAssign (pointer)
   04CB 3E 01              1372 	ld	a,#0x01
   04CD 12                 1373 	ld	(de),a
                           1374 ; genPlus
                           1375 ; genPlusIncr
   04CE 11 CD 00           1376 	ld	de,#_playfield + 0 + 13
                           1377 ; genAssign (pointer)
   04D1 3E 01              1378 	ld	a,#0x01
   04D3 12                 1379 	ld	(de),a
                           1380 ; genPlus
                           1381 ; genPlusIncr
   04D4 11 CE 00           1382 	ld	de,#_playfield + 0 + 14
                           1383 ; genAssign (pointer)
   04D7 3E 01              1384 	ld	a,#0x01
   04D9 12                 1385 	ld	(de),a
                           1386 ; genPlus
                           1387 ; genPlusIncr
   04DA 11 CF 00           1388 	ld	de,#_playfield + 0 + 15
                           1389 ; genAssign (pointer)
   04DD 3E 01              1390 	ld	a,#0x01
   04DF 12                 1391 	ld	(de),a
                           1392 ; genPlus
                           1393 ; genPlusIncr
   04E0 11 D0 00           1394 	ld	de,#_playfield + 0 + 16
                           1395 ; genAssign (pointer)
   04E3 3E 01              1396 	ld	a,#0x01
   04E5 12                 1397 	ld	(de),a
                           1398 ; genPlus
                           1399 ; genPlusIncr
   04E6 11 D1 00           1400 	ld	de,#_playfield + 0 + 17
                           1401 ; genAssign (pointer)
   04E9 3E 01              1402 	ld	a,#0x01
   04EB 12                 1403 	ld	(de),a
                           1404 ; genPlus
                           1405 ; genPlusIncr
   04EC 11 D2 00           1406 	ld	de,#_playfield + 0 + 18
                           1407 ; genAssign (pointer)
   04EF 3E 01              1408 	ld	a,#0x01
   04F1 12                 1409 	ld	(de),a
                           1410 ; genPlus
                           1411 ; genPlusIncr
   04F2 11 D3 00           1412 	ld	de,#_playfield + 0 + 19
                           1413 ; genAssign (pointer)
   04F5 3E 01              1414 	ld	a,#0x01
   04F7 12                 1415 	ld	(de),a
                           1416 ; genPlus
                           1417 ; genPlusIncr
   04F8 11 D4 00           1418 	ld	de,#_playfield + 0 + 20
                           1419 ; genAssign (pointer)
   04FB 3E 01              1420 	ld	a,#0x01
   04FD 12                 1421 	ld	(de),a
                           1422 ; genPlus
                           1423 ; genPlusIncr
   04FE 11 D5 00           1424 	ld	de,#_playfield + 0 + 21
                           1425 ; genAssign (pointer)
   0501 3E 00              1426 	ld	a,#0x00
   0503 12                 1427 	ld	(de),a
                           1428 ; genPlus
                           1429 ; genPlusIncr
   0504 11 D6 00           1430 	ld	de,#_playfield + 0 + 22
                           1431 ; genAssign (pointer)
   0507 3E 00              1432 	ld	a,#0x00
   0509 12                 1433 	ld	(de),a
                           1434 ; genPlus
                           1435 ; genPlusIncr
   050A 11 D7 00           1436 	ld	de,#_playfield + 0 + 23
                           1437 ; genAssign (pointer)
   050D 3E 00              1438 	ld	a,#0x00
   050F 12                 1439 	ld	(de),a
                           1440 ; genPlus
                           1441 ; genPlusIncr
   0510 11 D8 00           1442 	ld	de,#_playfield + 0 + 24
                           1443 ; genAssign (pointer)
   0513 3E 00              1444 	ld	a,#0x00
   0515 12                 1445 	ld	(de),a
                           1446 ; genPlus
                           1447 ; genPlusIncr
   0516 11 D9 00           1448 	ld	de,#_playfield + 0 + 25
                           1449 ; genAssign (pointer)
   0519 3E 00              1450 	ld	a,#0x00
   051B 12                 1451 	ld	(de),a
                           1452 ; genPlus
                           1453 ; genPlusIncr
   051C 11 DA 00           1454 	ld	de,#_playfield + 0 + 26
                           1455 ; genAssign (pointer)
   051F 3E 00              1456 	ld	a,#0x00
   0521 12                 1457 	ld	(de),a
                           1458 ; genPlus
                           1459 ; genPlusIncr
   0522 11 DB 00           1460 	ld	de,#_playfield + 0 + 27
                           1461 ; genAssign (pointer)
   0525 3E 00              1462 	ld	a,#0x00
   0527 12                 1463 	ld	(de),a
                           1464 ; genPlus
                           1465 ; genPlusIncr
   0528 11 DC 00           1466 	ld	de,#_playfield + 0 + 28
                           1467 ; genAssign (pointer)
   052B 3E 00              1468 	ld	a,#0x00
   052D 12                 1469 	ld	(de),a
                           1470 ; genPlus
                           1471 ; genPlusIncr
   052E 11 DD 00           1472 	ld	de,#_playfield + 0 + 29
                           1473 ; genAssign (pointer)
   0531 3E 00              1474 	ld	a,#0x00
   0533 12                 1475 	ld	(de),a
                           1476 ; genPlus
                           1477 ; genPlusIncr
   0534 11 DE 00           1478 	ld	de,#_playfield + 0 + 30
                           1479 ; genAssign (pointer)
   0537 3E 00              1480 	ld	a,#0x00
   0539 12                 1481 	ld	(de),a
                           1482 ; genPlus
                           1483 ; genPlusIncr
   053A 11 DF 00           1484 	ld	de,#_playfield + 0 + 31
                           1485 ; genAssign (pointer)
   053D 3E 00              1486 	ld	a,#0x00
   053F 12                 1487 	ld	(de),a
                           1488 ; genPlus
                           1489 ; genPlusIncr
   0540 11 E0 00           1490 	ld	de,#_playfield + 0 + 32
                           1491 ; genAssign (pointer)
   0543 3E 00              1492 	ld	a,#0x00
   0545 12                 1493 	ld	(de),a
                           1494 ; genPlus
                           1495 ; genPlusIncr
   0546 11 E1 00           1496 	ld	de,#_playfield + 0 + 33
                           1497 ; genAssign (pointer)
   0549 3E 00              1498 	ld	a,#0x00
   054B 12                 1499 	ld	(de),a
                           1500 ; genPlus
                           1501 ; genPlusIncr
   054C 11 E2 00           1502 	ld	de,#_playfield + 0 + 34
                           1503 ; genAssign (pointer)
   054F 3E 00              1504 	ld	a,#0x00
   0551 12                 1505 	ld	(de),a
                           1506 ; genPlus
                           1507 ; genPlusIncr
   0552 11 E3 00           1508 	ld	de,#_playfield + 0 + 35
                           1509 ; genAssign (pointer)
   0555 3E 00              1510 	ld	a,#0x00
   0557 12                 1511 	ld	(de),a
                           1512 ; genPlus
                           1513 ; genPlusIncr
   0558 11 E4 00           1514 	ld	de,#_playfield + 0 + 36
                           1515 ; genAssign (pointer)
   055B 3E 00              1516 	ld	a,#0x00
   055D 12                 1517 	ld	(de),a
                           1518 ; genPlus
                           1519 ; genPlusIncr
   055E 11 E5 00           1520 	ld	de,#_playfield + 0 + 37
                           1521 ; genAssign (pointer)
   0561 3E 00              1522 	ld	a,#0x00
   0563 12                 1523 	ld	(de),a
                           1524 ; genPlus
                           1525 ; genPlusIncr
   0564 11 E6 00           1526 	ld	de,#_playfield + 0 + 38
                           1527 ; genAssign (pointer)
   0567 3E 00              1528 	ld	a,#0x00
   0569 12                 1529 	ld	(de),a
                           1530 ; genPlus
                           1531 ; genPlusIncr
   056A 11 E7 00           1532 	ld	de,#_playfield + 0 + 39
                           1533 ; genAssign (pointer)
   056D 3E 01              1534 	ld	a,#0x01
   056F 12                 1535 	ld	(de),a
                           1536 ; genPlus
                           1537 ; genPlusIncr
   0570 11 E8 00           1538 	ld	de,#_playfield + 0 + 40
                           1539 ; genAssign (pointer)
   0573 3E 01              1540 	ld	a,#0x01
   0575 12                 1541 	ld	(de),a
                           1542 ; genPlus
                           1543 ; genPlusIncr
   0576 11 E9 00           1544 	ld	de,#_playfield + 0 + 41
                           1545 ; genAssign (pointer)
   0579 3E 00              1546 	ld	a,#0x00
   057B 12                 1547 	ld	(de),a
                           1548 ; genPlus
                           1549 ; genPlusIncr
   057C 11 EA 00           1550 	ld	de,#_playfield + 0 + 42
                           1551 ; genAssign (pointer)
   057F 3E 00              1552 	ld	a,#0x00
   0581 12                 1553 	ld	(de),a
                           1554 ; genPlus
                           1555 ; genPlusIncr
   0582 11 EB 00           1556 	ld	de,#_playfield + 0 + 43
                           1557 ; genAssign (pointer)
   0585 3E 00              1558 	ld	a,#0x00
   0587 12                 1559 	ld	(de),a
                           1560 ; genPlus
                           1561 ; genPlusIncr
   0588 11 EC 00           1562 	ld	de,#_playfield + 0 + 44
                           1563 ; genAssign (pointer)
   058B 3E 00              1564 	ld	a,#0x00
   058D 12                 1565 	ld	(de),a
                           1566 ; genPlus
                           1567 ; genPlusIncr
   058E 11 ED 00           1568 	ld	de,#_playfield + 0 + 45
                           1569 ; genAssign (pointer)
   0591 3E 00              1570 	ld	a,#0x00
   0593 12                 1571 	ld	(de),a
                           1572 ; genPlus
                           1573 ; genPlusIncr
   0594 11 EE 00           1574 	ld	de,#_playfield + 0 + 46
                           1575 ; genAssign (pointer)
   0597 3E 00              1576 	ld	a,#0x00
   0599 12                 1577 	ld	(de),a
                           1578 ; genPlus
                           1579 ; genPlusIncr
   059A 11 EF 00           1580 	ld	de,#_playfield + 0 + 47
                           1581 ; genAssign (pointer)
   059D 3E 00              1582 	ld	a,#0x00
   059F 12                 1583 	ld	(de),a
                           1584 ; genPlus
                           1585 ; genPlusIncr
   05A0 11 F0 00           1586 	ld	de,#_playfield + 0 + 48
                           1587 ; genAssign (pointer)
   05A3 3E 00              1588 	ld	a,#0x00
   05A5 12                 1589 	ld	(de),a
                           1590 ; genPlus
                           1591 ; genPlusIncr
   05A6 11 F1 00           1592 	ld	de,#_playfield + 0 + 49
                           1593 ; genAssign (pointer)
   05A9 3E 00              1594 	ld	a,#0x00
   05AB 12                 1595 	ld	(de),a
                           1596 ; genPlus
                           1597 ; genPlusIncr
   05AC 11 F2 00           1598 	ld	de,#_playfield + 0 + 50
                           1599 ; genAssign (pointer)
   05AF 3E 00              1600 	ld	a,#0x00
   05B1 12                 1601 	ld	(de),a
                           1602 ; genPlus
                           1603 ; genPlusIncr
   05B2 11 F3 00           1604 	ld	de,#_playfield + 0 + 51
                           1605 ; genAssign (pointer)
   05B5 3E 00              1606 	ld	a,#0x00
   05B7 12                 1607 	ld	(de),a
                           1608 ; genPlus
                           1609 ; genPlusIncr
   05B8 11 F4 00           1610 	ld	de,#_playfield + 0 + 52
                           1611 ; genAssign (pointer)
   05BB 3E 00              1612 	ld	a,#0x00
   05BD 12                 1613 	ld	(de),a
                           1614 ; genPlus
                           1615 ; genPlusIncr
   05BE 11 F5 00           1616 	ld	de,#_playfield + 0 + 53
                           1617 ; genAssign (pointer)
   05C1 3E 00              1618 	ld	a,#0x00
   05C3 12                 1619 	ld	(de),a
                           1620 ; genPlus
                           1621 ; genPlusIncr
   05C4 11 F6 00           1622 	ld	de,#_playfield + 0 + 54
                           1623 ; genAssign (pointer)
   05C7 3E 00              1624 	ld	a,#0x00
   05C9 12                 1625 	ld	(de),a
                           1626 ; genPlus
                           1627 ; genPlusIncr
   05CA 11 F7 00           1628 	ld	de,#_playfield + 0 + 55
                           1629 ; genAssign (pointer)
   05CD 3E 00              1630 	ld	a,#0x00
   05CF 12                 1631 	ld	(de),a
                           1632 ; genPlus
                           1633 ; genPlusIncr
   05D0 11 F8 00           1634 	ld	de,#_playfield + 0 + 56
                           1635 ; genAssign (pointer)
   05D3 3E 00              1636 	ld	a,#0x00
   05D5 12                 1637 	ld	(de),a
                           1638 ; genPlus
                           1639 ; genPlusIncr
   05D6 11 F9 00           1640 	ld	de,#_playfield + 0 + 57
                           1641 ; genAssign (pointer)
   05D9 3E 00              1642 	ld	a,#0x00
   05DB 12                 1643 	ld	(de),a
                           1644 ; genPlus
                           1645 ; genPlusIncr
   05DC 11 FA 00           1646 	ld	de,#_playfield + 0 + 58
                           1647 ; genAssign (pointer)
   05DF 3E 00              1648 	ld	a,#0x00
   05E1 12                 1649 	ld	(de),a
                           1650 ; genPlus
                           1651 ; genPlusIncr
   05E2 11 FB 00           1652 	ld	de,#_playfield + 0 + 59
                           1653 ; genAssign (pointer)
   05E5 3E 01              1654 	ld	a,#0x01
   05E7 12                 1655 	ld	(de),a
                           1656 ; genPlus
                           1657 ; genPlusIncr
   05E8 11 FC 00           1658 	ld	de,#_playfield + 0 + 60
                           1659 ; genAssign (pointer)
   05EB 3E 01              1660 	ld	a,#0x01
   05ED 12                 1661 	ld	(de),a
                           1662 ; genPlus
                           1663 ; genPlusIncr
   05EE 11 FD 00           1664 	ld	de,#_playfield + 0 + 61
                           1665 ; genAssign (pointer)
   05F1 3E 10              1666 	ld	a,#0x10
   05F3 12                 1667 	ld	(de),a
                           1668 ; genPlus
                           1669 ; genPlusIncr
   05F4 11 FE 00           1670 	ld	de,#_playfield + 0 + 62
                           1671 ; genAssign (pointer)
   05F7 3E 10              1672 	ld	a,#0x10
   05F9 12                 1673 	ld	(de),a
                           1674 ; genPlus
                           1675 ; genPlusIncr
   05FA 11 FF 00           1676 	ld	de,#_playfield + 0 + 63
                           1677 ; genAssign (pointer)
   05FD 3E 00              1678 	ld	a,#0x00
   05FF 12                 1679 	ld	(de),a
                           1680 ; genPlus
                           1681 ; genPlusIncr
   0600 11 00 01           1682 	ld	de,#_playfield + 0 + 64
                           1683 ; genAssign (pointer)
   0603 3E 00              1684 	ld	a,#0x00
   0605 12                 1685 	ld	(de),a
                           1686 ; genPlus
                           1687 ; genPlusIncr
   0606 11 01 01           1688 	ld	de,#_playfield + 0 + 65
                           1689 ; genAssign (pointer)
   0609 3E 00              1690 	ld	a,#0x00
   060B 12                 1691 	ld	(de),a
                           1692 ; genPlus
                           1693 ; genPlusIncr
   060C 11 02 01           1694 	ld	de,#_playfield + 0 + 66
                           1695 ; genAssign (pointer)
   060F 3E 00              1696 	ld	a,#0x00
   0611 12                 1697 	ld	(de),a
                           1698 ; genPlus
                           1699 ; genPlusIncr
   0612 11 03 01           1700 	ld	de,#_playfield + 0 + 67
                           1701 ; genAssign (pointer)
   0615 3E 00              1702 	ld	a,#0x00
   0617 12                 1703 	ld	(de),a
                           1704 ; genPlus
                           1705 ; genPlusIncr
   0618 11 04 01           1706 	ld	de,#_playfield + 0 + 68
                           1707 ; genAssign (pointer)
   061B 3E 00              1708 	ld	a,#0x00
   061D 12                 1709 	ld	(de),a
                           1710 ; genPlus
                           1711 ; genPlusIncr
   061E 11 05 01           1712 	ld	de,#_playfield + 0 + 69
                           1713 ; genAssign (pointer)
   0621 3E 00              1714 	ld	a,#0x00
   0623 12                 1715 	ld	(de),a
                           1716 ; genPlus
                           1717 ; genPlusIncr
   0624 11 06 01           1718 	ld	de,#_playfield + 0 + 70
                           1719 ; genAssign (pointer)
   0627 3E 00              1720 	ld	a,#0x00
   0629 12                 1721 	ld	(de),a
                           1722 ; genPlus
                           1723 ; genPlusIncr
   062A 11 07 01           1724 	ld	de,#_playfield + 0 + 71
                           1725 ; genAssign (pointer)
   062D 3E 00              1726 	ld	a,#0x00
   062F 12                 1727 	ld	(de),a
                           1728 ; genPlus
                           1729 ; genPlusIncr
   0630 11 08 01           1730 	ld	de,#_playfield + 0 + 72
                           1731 ; genAssign (pointer)
   0633 3E 00              1732 	ld	a,#0x00
   0635 12                 1733 	ld	(de),a
                           1734 ; genPlus
                           1735 ; genPlusIncr
   0636 11 09 01           1736 	ld	de,#_playfield + 0 + 73
                           1737 ; genAssign (pointer)
   0639 3E 00              1738 	ld	a,#0x00
   063B 12                 1739 	ld	(de),a
                           1740 ; genPlus
                           1741 ; genPlusIncr
   063C 11 0A 01           1742 	ld	de,#_playfield + 0 + 74
                           1743 ; genAssign (pointer)
   063F 3E 00              1744 	ld	a,#0x00
   0641 12                 1745 	ld	(de),a
                           1746 ; genPlus
                           1747 ; genPlusIncr
   0642 11 0B 01           1748 	ld	de,#_playfield + 0 + 75
                           1749 ; genAssign (pointer)
   0645 3E 00              1750 	ld	a,#0x00
   0647 12                 1751 	ld	(de),a
                           1752 ; genPlus
                           1753 ; genPlusIncr
   0648 11 0C 01           1754 	ld	de,#_playfield + 0 + 76
                           1755 ; genAssign (pointer)
   064B 3E 00              1756 	ld	a,#0x00
   064D 12                 1757 	ld	(de),a
                           1758 ; genPlus
                           1759 ; genPlusIncr
   064E 11 0D 01           1760 	ld	de,#_playfield + 0 + 77
                           1761 ; genAssign (pointer)
   0651 3E 00              1762 	ld	a,#0x00
   0653 12                 1763 	ld	(de),a
                           1764 ; genPlus
                           1765 ; genPlusIncr
   0654 11 0E 01           1766 	ld	de,#_playfield + 0 + 78
                           1767 ; genAssign (pointer)
   0657 3E 00              1768 	ld	a,#0x00
   0659 12                 1769 	ld	(de),a
                           1770 ; genPlus
                           1771 ; genPlusIncr
   065A 11 0F 01           1772 	ld	de,#_playfield + 0 + 79
                           1773 ; genAssign (pointer)
   065D 3E 01              1774 	ld	a,#0x01
   065F 12                 1775 	ld	(de),a
                           1776 ; genPlus
                           1777 ; genPlusIncr
   0660 11 10 01           1778 	ld	de,#_playfield + 0 + 80
                           1779 ; genAssign (pointer)
   0663 3E 02              1780 	ld	a,#0x02
   0665 12                 1781 	ld	(de),a
                           1782 ; genPlus
                           1783 ; genPlusIncr
   0666 11 11 01           1784 	ld	de,#_playfield + 0 + 81
                           1785 ; genAssign (pointer)
   0669 3E 10              1786 	ld	a,#0x10
   066B 12                 1787 	ld	(de),a
                           1788 ; genPlus
                           1789 ; genPlusIncr
   066C 11 12 01           1790 	ld	de,#_playfield + 0 + 82
                           1791 ; genAssign (pointer)
   066F 3E 10              1792 	ld	a,#0x10
   0671 12                 1793 	ld	(de),a
                           1794 ; genPlus
                           1795 ; genPlusIncr
   0672 11 13 01           1796 	ld	de,#_playfield + 0 + 83
                           1797 ; genAssign (pointer)
   0675 3E 00              1798 	ld	a,#0x00
   0677 12                 1799 	ld	(de),a
                           1800 ; genPlus
                           1801 ; genPlusIncr
   0678 11 14 01           1802 	ld	de,#_playfield + 0 + 84
                           1803 ; genAssign (pointer)
   067B 3E 00              1804 	ld	a,#0x00
   067D 12                 1805 	ld	(de),a
                           1806 ; genPlus
                           1807 ; genPlusIncr
   067E 11 15 01           1808 	ld	de,#_playfield + 0 + 85
                           1809 ; genAssign (pointer)
   0681 3E 00              1810 	ld	a,#0x00
   0683 12                 1811 	ld	(de),a
                           1812 ; genPlus
                           1813 ; genPlusIncr
   0684 11 16 01           1814 	ld	de,#_playfield + 0 + 86
                           1815 ; genAssign (pointer)
   0687 3E 00              1816 	ld	a,#0x00
   0689 12                 1817 	ld	(de),a
                           1818 ; genPlus
                           1819 ; genPlusIncr
   068A 11 17 01           1820 	ld	de,#_playfield + 0 + 87
                           1821 ; genAssign (pointer)
   068D 3E 00              1822 	ld	a,#0x00
   068F 12                 1823 	ld	(de),a
                           1824 ; genPlus
                           1825 ; genPlusIncr
   0690 11 18 01           1826 	ld	de,#_playfield + 0 + 88
                           1827 ; genAssign (pointer)
   0693 3E 00              1828 	ld	a,#0x00
   0695 12                 1829 	ld	(de),a
                           1830 ; genPlus
                           1831 ; genPlusIncr
   0696 11 19 01           1832 	ld	de,#_playfield + 0 + 89
                           1833 ; genAssign (pointer)
   0699 3E 00              1834 	ld	a,#0x00
   069B 12                 1835 	ld	(de),a
                           1836 ; genPlus
                           1837 ; genPlusIncr
   069C 11 1A 01           1838 	ld	de,#_playfield + 0 + 90
                           1839 ; genAssign (pointer)
   069F 3E 00              1840 	ld	a,#0x00
   06A1 12                 1841 	ld	(de),a
                           1842 ; genPlus
                           1843 ; genPlusIncr
   06A2 11 1B 01           1844 	ld	de,#_playfield + 0 + 91
                           1845 ; genAssign (pointer)
   06A5 3E 00              1846 	ld	a,#0x00
   06A7 12                 1847 	ld	(de),a
                           1848 ; genPlus
                           1849 ; genPlusIncr
   06A8 11 1C 01           1850 	ld	de,#_playfield + 0 + 92
                           1851 ; genAssign (pointer)
   06AB 3E 00              1852 	ld	a,#0x00
   06AD 12                 1853 	ld	(de),a
                           1854 ; genPlus
                           1855 ; genPlusIncr
   06AE 11 1D 01           1856 	ld	de,#_playfield + 0 + 93
                           1857 ; genAssign (pointer)
   06B1 3E 00              1858 	ld	a,#0x00
   06B3 12                 1859 	ld	(de),a
                           1860 ; genPlus
                           1861 ; genPlusIncr
   06B4 11 1E 01           1862 	ld	de,#_playfield + 0 + 94
                           1863 ; genAssign (pointer)
   06B7 3E 00              1864 	ld	a,#0x00
   06B9 12                 1865 	ld	(de),a
                           1866 ; genPlus
                           1867 ; genPlusIncr
   06BA 11 1F 01           1868 	ld	de,#_playfield + 0 + 95
                           1869 ; genAssign (pointer)
   06BD 3E 00              1870 	ld	a,#0x00
   06BF 12                 1871 	ld	(de),a
                           1872 ; genPlus
                           1873 ; genPlusIncr
   06C0 11 20 01           1874 	ld	de,#_playfield + 0 + 96
                           1875 ; genAssign (pointer)
   06C3 3E 00              1876 	ld	a,#0x00
   06C5 12                 1877 	ld	(de),a
                           1878 ; genPlus
                           1879 ; genPlusIncr
   06C6 11 21 01           1880 	ld	de,#_playfield + 0 + 97
                           1881 ; genAssign (pointer)
   06C9 3E 00              1882 	ld	a,#0x00
   06CB 12                 1883 	ld	(de),a
                           1884 ; genPlus
                           1885 ; genPlusIncr
   06CC 11 22 01           1886 	ld	de,#_playfield + 0 + 98
                           1887 ; genAssign (pointer)
   06CF 3E 00              1888 	ld	a,#0x00
   06D1 12                 1889 	ld	(de),a
                           1890 ; genPlus
                           1891 ; genPlusIncr
   06D2 11 23 01           1892 	ld	de,#_playfield + 0 + 99
                           1893 ; genAssign (pointer)
   06D5 3E 02              1894 	ld	a,#0x02
   06D7 12                 1895 	ld	(de),a
                           1896 ; genPlus
                           1897 ; genPlusIncr
   06D8 11 24 01           1898 	ld	de,#_playfield + 0 + 100
                           1899 ; genAssign (pointer)
   06DB 3E 02              1900 	ld	a,#0x02
   06DD 12                 1901 	ld	(de),a
                           1902 ; genPlus
                           1903 ; genPlusIncr
   06DE 11 25 01           1904 	ld	de,#_playfield + 0 + 101
                           1905 ; genAssign (pointer)
   06E1 3E 00              1906 	ld	a,#0x00
   06E3 12                 1907 	ld	(de),a
                           1908 ; genPlus
                           1909 ; genPlusIncr
   06E4 11 26 01           1910 	ld	de,#_playfield + 0 + 102
                           1911 ; genAssign (pointer)
   06E7 3E 00              1912 	ld	a,#0x00
   06E9 12                 1913 	ld	(de),a
                           1914 ; genPlus
                           1915 ; genPlusIncr
   06EA 11 27 01           1916 	ld	de,#_playfield + 0 + 103
                           1917 ; genAssign (pointer)
   06ED 3E 00              1918 	ld	a,#0x00
   06EF 12                 1919 	ld	(de),a
                           1920 ; genPlus
                           1921 ; genPlusIncr
   06F0 11 28 01           1922 	ld	de,#_playfield + 0 + 104
                           1923 ; genAssign (pointer)
   06F3 3E 00              1924 	ld	a,#0x00
   06F5 12                 1925 	ld	(de),a
                           1926 ; genPlus
                           1927 ; genPlusIncr
   06F6 11 29 01           1928 	ld	de,#_playfield + 0 + 105
                           1929 ; genAssign (pointer)
   06F9 3E 00              1930 	ld	a,#0x00
   06FB 12                 1931 	ld	(de),a
                           1932 ; genPlus
                           1933 ; genPlusIncr
   06FC 11 2A 01           1934 	ld	de,#_playfield + 0 + 106
                           1935 ; genAssign (pointer)
   06FF 3E 00              1936 	ld	a,#0x00
   0701 12                 1937 	ld	(de),a
                           1938 ; genPlus
                           1939 ; genPlusIncr
   0702 11 2B 01           1940 	ld	de,#_playfield + 0 + 107
                           1941 ; genAssign (pointer)
   0705 3E 00              1942 	ld	a,#0x00
   0707 12                 1943 	ld	(de),a
                           1944 ; genPlus
                           1945 ; genPlusIncr
   0708 11 2C 01           1946 	ld	de,#_playfield + 0 + 108
                           1947 ; genAssign (pointer)
   070B 3E 00              1948 	ld	a,#0x00
   070D 12                 1949 	ld	(de),a
                           1950 ; genPlus
                           1951 ; genPlusIncr
   070E 11 2D 01           1952 	ld	de,#_playfield + 0 + 109
                           1953 ; genAssign (pointer)
   0711 3E 00              1954 	ld	a,#0x00
   0713 12                 1955 	ld	(de),a
                           1956 ; genPlus
                           1957 ; genPlusIncr
   0714 11 2E 01           1958 	ld	de,#_playfield + 0 + 110
                           1959 ; genAssign (pointer)
   0717 3E 00              1960 	ld	a,#0x00
   0719 12                 1961 	ld	(de),a
                           1962 ; genPlus
                           1963 ; genPlusIncr
   071A 11 2F 01           1964 	ld	de,#_playfield + 0 + 111
                           1965 ; genAssign (pointer)
   071D 3E 00              1966 	ld	a,#0x00
   071F 12                 1967 	ld	(de),a
                           1968 ; genPlus
                           1969 ; genPlusIncr
   0720 11 30 01           1970 	ld	de,#_playfield + 0 + 112
                           1971 ; genAssign (pointer)
   0723 3E 00              1972 	ld	a,#0x00
   0725 12                 1973 	ld	(de),a
                           1974 ; genPlus
                           1975 ; genPlusIncr
   0726 11 31 01           1976 	ld	de,#_playfield + 0 + 113
                           1977 ; genAssign (pointer)
   0729 3E 00              1978 	ld	a,#0x00
   072B 12                 1979 	ld	(de),a
                           1980 ; genPlus
                           1981 ; genPlusIncr
   072C 11 32 01           1982 	ld	de,#_playfield + 0 + 114
                           1983 ; genAssign (pointer)
   072F 3E 00              1984 	ld	a,#0x00
   0731 12                 1985 	ld	(de),a
                           1986 ; genPlus
                           1987 ; genPlusIncr
   0732 11 33 01           1988 	ld	de,#_playfield + 0 + 115
                           1989 ; genAssign (pointer)
   0735 3E 00              1990 	ld	a,#0x00
   0737 12                 1991 	ld	(de),a
                           1992 ; genPlus
                           1993 ; genPlusIncr
   0738 11 34 01           1994 	ld	de,#_playfield + 0 + 116
                           1995 ; genAssign (pointer)
   073B 3E 00              1996 	ld	a,#0x00
   073D 12                 1997 	ld	(de),a
                           1998 ; genPlus
                           1999 ; genPlusIncr
   073E 11 35 01           2000 	ld	de,#_playfield + 0 + 117
                           2001 ; genAssign (pointer)
   0741 3E 00              2002 	ld	a,#0x00
   0743 12                 2003 	ld	(de),a
                           2004 ; genPlus
                           2005 ; genPlusIncr
   0744 11 36 01           2006 	ld	de,#_playfield + 0 + 118
                           2007 ; genAssign (pointer)
   0747 3E 00              2008 	ld	a,#0x00
   0749 12                 2009 	ld	(de),a
                           2010 ; genPlus
                           2011 ; genPlusIncr
   074A 11 37 01           2012 	ld	de,#_playfield + 0 + 119
                           2013 ; genAssign (pointer)
   074D 3E 02              2014 	ld	a,#0x02
   074F 12                 2015 	ld	(de),a
                           2016 ; genPlus
                           2017 ; genPlusIncr
   0750 11 38 01           2018 	ld	de,#_playfield + 0 + 120
                           2019 ; genAssign (pointer)
   0753 3E 02              2020 	ld	a,#0x02
   0755 12                 2021 	ld	(de),a
                           2022 ; genPlus
                           2023 ; genPlusIncr
   0756 11 39 01           2024 	ld	de,#_playfield + 0 + 121
                           2025 ; genAssign (pointer)
   0759 3E 00              2026 	ld	a,#0x00
   075B 12                 2027 	ld	(de),a
                           2028 ; genPlus
                           2029 ; genPlusIncr
   075C 11 3A 01           2030 	ld	de,#_playfield + 0 + 122
                           2031 ; genAssign (pointer)
   075F 3E 00              2032 	ld	a,#0x00
   0761 12                 2033 	ld	(de),a
                           2034 ; genPlus
                           2035 ; genPlusIncr
   0762 11 3B 01           2036 	ld	de,#_playfield + 0 + 123
                           2037 ; genAssign (pointer)
   0765 3E 00              2038 	ld	a,#0x00
   0767 12                 2039 	ld	(de),a
                           2040 ; genPlus
                           2041 ; genPlusIncr
   0768 11 3C 01           2042 	ld	de,#_playfield + 0 + 124
                           2043 ; genAssign (pointer)
   076B 3E 00              2044 	ld	a,#0x00
   076D 12                 2045 	ld	(de),a
                           2046 ; genPlus
                           2047 ; genPlusIncr
   076E 11 3D 01           2048 	ld	de,#_playfield + 0 + 125
                           2049 ; genAssign (pointer)
   0771 3E 00              2050 	ld	a,#0x00
   0773 12                 2051 	ld	(de),a
                           2052 ; genPlus
                           2053 ; genPlusIncr
   0774 11 3E 01           2054 	ld	de,#_playfield + 0 + 126
                           2055 ; genAssign (pointer)
   0777 3E 00              2056 	ld	a,#0x00
   0779 12                 2057 	ld	(de),a
                           2058 ; genPlus
                           2059 ; genPlusIncr
   077A 11 3F 01           2060 	ld	de,#_playfield + 0 + 127
                           2061 ; genAssign (pointer)
   077D 3E 00              2062 	ld	a,#0x00
   077F 12                 2063 	ld	(de),a
                           2064 ; genPlus
                           2065 ; genPlusIncr
   0780 11 40 01           2066 	ld	de,#_playfield + 0 + 128
                           2067 ; genAssign (pointer)
   0783 3E 00              2068 	ld	a,#0x00
   0785 12                 2069 	ld	(de),a
                           2070 ; genPlus
                           2071 ; genPlusIncr
   0786 11 41 01           2072 	ld	de,#_playfield + 0 + 129
                           2073 ; genAssign (pointer)
   0789 3E 00              2074 	ld	a,#0x00
   078B 12                 2075 	ld	(de),a
                           2076 ; genPlus
                           2077 ; genPlusIncr
   078C 11 42 01           2078 	ld	de,#_playfield + 0 + 130
                           2079 ; genAssign (pointer)
   078F 3E 00              2080 	ld	a,#0x00
   0791 12                 2081 	ld	(de),a
                           2082 ; genPlus
                           2083 ; genPlusIncr
   0792 11 43 01           2084 	ld	de,#_playfield + 0 + 131
                           2085 ; genAssign (pointer)
   0795 3E 00              2086 	ld	a,#0x00
   0797 12                 2087 	ld	(de),a
                           2088 ; genPlus
                           2089 ; genPlusIncr
   0798 11 44 01           2090 	ld	de,#_playfield + 0 + 132
                           2091 ; genAssign (pointer)
   079B 3E 00              2092 	ld	a,#0x00
   079D 12                 2093 	ld	(de),a
                           2094 ; genPlus
                           2095 ; genPlusIncr
   079E 11 45 01           2096 	ld	de,#_playfield + 0 + 133
                           2097 ; genAssign (pointer)
   07A1 3E 00              2098 	ld	a,#0x00
   07A3 12                 2099 	ld	(de),a
                           2100 ; genPlus
                           2101 ; genPlusIncr
   07A4 11 46 01           2102 	ld	de,#_playfield + 0 + 134
                           2103 ; genAssign (pointer)
   07A7 3E 00              2104 	ld	a,#0x00
   07A9 12                 2105 	ld	(de),a
                           2106 ; genPlus
                           2107 ; genPlusIncr
   07AA 11 47 01           2108 	ld	de,#_playfield + 0 + 135
                           2109 ; genAssign (pointer)
   07AD 3E 00              2110 	ld	a,#0x00
   07AF 12                 2111 	ld	(de),a
                           2112 ; genPlus
                           2113 ; genPlusIncr
   07B0 11 48 01           2114 	ld	de,#_playfield + 0 + 136
                           2115 ; genAssign (pointer)
   07B3 3E 00              2116 	ld	a,#0x00
   07B5 12                 2117 	ld	(de),a
                           2118 ; genPlus
                           2119 ; genPlusIncr
   07B6 11 49 01           2120 	ld	de,#_playfield + 0 + 137
                           2121 ; genAssign (pointer)
   07B9 3E 00              2122 	ld	a,#0x00
   07BB 12                 2123 	ld	(de),a
                           2124 ; genPlus
                           2125 ; genPlusIncr
   07BC 11 4A 01           2126 	ld	de,#_playfield + 0 + 138
                           2127 ; genAssign (pointer)
   07BF 3E 00              2128 	ld	a,#0x00
   07C1 12                 2129 	ld	(de),a
                           2130 ; genPlus
                           2131 ; genPlusIncr
   07C2 11 4B 01           2132 	ld	de,#_playfield + 0 + 139
                           2133 ; genAssign (pointer)
   07C5 3E 02              2134 	ld	a,#0x02
   07C7 12                 2135 	ld	(de),a
                           2136 ; genPlus
                           2137 ; genPlusIncr
   07C8 11 4C 01           2138 	ld	de,#_playfield + 0 + 140
                           2139 ; genAssign (pointer)
   07CB 3E 03              2140 	ld	a,#0x03
   07CD 12                 2141 	ld	(de),a
                           2142 ; genPlus
                           2143 ; genPlusIncr
   07CE 11 4D 01           2144 	ld	de,#_playfield + 0 + 141
                           2145 ; genAssign (pointer)
   07D1 3E 00              2146 	ld	a,#0x00
   07D3 12                 2147 	ld	(de),a
                           2148 ; genPlus
                           2149 ; genPlusIncr
   07D4 11 4E 01           2150 	ld	de,#_playfield + 0 + 142
                           2151 ; genAssign (pointer)
   07D7 3E 00              2152 	ld	a,#0x00
   07D9 12                 2153 	ld	(de),a
                           2154 ; genPlus
                           2155 ; genPlusIncr
   07DA 11 4F 01           2156 	ld	de,#_playfield + 0 + 143
                           2157 ; genAssign (pointer)
   07DD 3E 00              2158 	ld	a,#0x00
   07DF 12                 2159 	ld	(de),a
                           2160 ; genPlus
                           2161 ; genPlusIncr
   07E0 11 50 01           2162 	ld	de,#_playfield + 0 + 144
                           2163 ; genAssign (pointer)
   07E3 3E 00              2164 	ld	a,#0x00
   07E5 12                 2165 	ld	(de),a
                           2166 ; genPlus
                           2167 ; genPlusIncr
   07E6 11 51 01           2168 	ld	de,#_playfield + 0 + 145
                           2169 ; genAssign (pointer)
   07E9 3E 00              2170 	ld	a,#0x00
   07EB 12                 2171 	ld	(de),a
                           2172 ; genPlus
                           2173 ; genPlusIncr
   07EC 11 52 01           2174 	ld	de,#_playfield + 0 + 146
                           2175 ; genAssign (pointer)
   07EF 3E 00              2176 	ld	a,#0x00
   07F1 12                 2177 	ld	(de),a
                           2178 ; genPlus
                           2179 ; genPlusIncr
   07F2 11 53 01           2180 	ld	de,#_playfield + 0 + 147
                           2181 ; genAssign (pointer)
   07F5 3E 00              2182 	ld	a,#0x00
   07F7 12                 2183 	ld	(de),a
                           2184 ; genPlus
                           2185 ; genPlusIncr
   07F8 11 54 01           2186 	ld	de,#_playfield + 0 + 148
                           2187 ; genAssign (pointer)
   07FB 3E 00              2188 	ld	a,#0x00
   07FD 12                 2189 	ld	(de),a
                           2190 ; genPlus
                           2191 ; genPlusIncr
   07FE 11 55 01           2192 	ld	de,#_playfield + 0 + 149
                           2193 ; genAssign (pointer)
   0801 3E 00              2194 	ld	a,#0x00
   0803 12                 2195 	ld	(de),a
                           2196 ; genPlus
                           2197 ; genPlusIncr
   0804 11 56 01           2198 	ld	de,#_playfield + 0 + 150
                           2199 ; genAssign (pointer)
   0807 3E 00              2200 	ld	a,#0x00
   0809 12                 2201 	ld	(de),a
                           2202 ; genPlus
                           2203 ; genPlusIncr
   080A 11 57 01           2204 	ld	de,#_playfield + 0 + 151
                           2205 ; genAssign (pointer)
   080D 3E 00              2206 	ld	a,#0x00
   080F 12                 2207 	ld	(de),a
                           2208 ; genPlus
                           2209 ; genPlusIncr
   0810 11 58 01           2210 	ld	de,#_playfield + 0 + 152
                           2211 ; genAssign (pointer)
   0813 3E 00              2212 	ld	a,#0x00
   0815 12                 2213 	ld	(de),a
                           2214 ; genPlus
                           2215 ; genPlusIncr
   0816 11 59 01           2216 	ld	de,#_playfield + 0 + 153
                           2217 ; genAssign (pointer)
   0819 3E 00              2218 	ld	a,#0x00
   081B 12                 2219 	ld	(de),a
                           2220 ; genPlus
                           2221 ; genPlusIncr
   081C 11 5A 01           2222 	ld	de,#_playfield + 0 + 154
                           2223 ; genAssign (pointer)
   081F 3E 00              2224 	ld	a,#0x00
   0821 12                 2225 	ld	(de),a
                           2226 ; genPlus
                           2227 ; genPlusIncr
   0822 11 5B 01           2228 	ld	de,#_playfield + 0 + 155
                           2229 ; genAssign (pointer)
   0825 3E 00              2230 	ld	a,#0x00
   0827 12                 2231 	ld	(de),a
                           2232 ; genPlus
                           2233 ; genPlusIncr
   0828 11 5C 01           2234 	ld	de,#_playfield + 0 + 156
                           2235 ; genAssign (pointer)
   082B 3E 00              2236 	ld	a,#0x00
   082D 12                 2237 	ld	(de),a
                           2238 ; genPlus
                           2239 ; genPlusIncr
   082E 11 5D 01           2240 	ld	de,#_playfield + 0 + 157
                           2241 ; genAssign (pointer)
   0831 3E 00              2242 	ld	a,#0x00
   0833 12                 2243 	ld	(de),a
                           2244 ; genPlus
                           2245 ; genPlusIncr
   0834 11 5E 01           2246 	ld	de,#_playfield + 0 + 158
                           2247 ; genAssign (pointer)
   0837 3E 00              2248 	ld	a,#0x00
   0839 12                 2249 	ld	(de),a
                           2250 ; genPlus
                           2251 ; genPlusIncr
   083A 11 5F 01           2252 	ld	de,#_playfield + 0 + 159
                           2253 ; genAssign (pointer)
   083D 3E 03              2254 	ld	a,#0x03
   083F 12                 2255 	ld	(de),a
                           2256 ; genPlus
                           2257 ; genPlusIncr
   0840 11 60 01           2258 	ld	de,#_playfield + 0 + 160
                           2259 ; genAssign (pointer)
   0843 3E 03              2260 	ld	a,#0x03
   0845 12                 2261 	ld	(de),a
                           2262 ; genPlus
                           2263 ; genPlusIncr
   0846 11 61 01           2264 	ld	de,#_playfield + 0 + 161
                           2265 ; genAssign (pointer)
   0849 3E 00              2266 	ld	a,#0x00
   084B 12                 2267 	ld	(de),a
                           2268 ; genPlus
                           2269 ; genPlusIncr
   084C 11 62 01           2270 	ld	de,#_playfield + 0 + 162
                           2271 ; genAssign (pointer)
   084F 3E 00              2272 	ld	a,#0x00
   0851 12                 2273 	ld	(de),a
                           2274 ; genPlus
                           2275 ; genPlusIncr
   0852 11 63 01           2276 	ld	de,#_playfield + 0 + 163
                           2277 ; genAssign (pointer)
   0855 3E 00              2278 	ld	a,#0x00
   0857 12                 2279 	ld	(de),a
                           2280 ; genPlus
                           2281 ; genPlusIncr
   0858 11 64 01           2282 	ld	de,#_playfield + 0 + 164
                           2283 ; genAssign (pointer)
   085B 3E 00              2284 	ld	a,#0x00
   085D 12                 2285 	ld	(de),a
                           2286 ; genPlus
                           2287 ; genPlusIncr
   085E 11 65 01           2288 	ld	de,#_playfield + 0 + 165
                           2289 ; genAssign (pointer)
   0861 3E 00              2290 	ld	a,#0x00
   0863 12                 2291 	ld	(de),a
                           2292 ; genPlus
                           2293 ; genPlusIncr
   0864 11 66 01           2294 	ld	de,#_playfield + 0 + 166
                           2295 ; genAssign (pointer)
   0867 3E 00              2296 	ld	a,#0x00
   0869 12                 2297 	ld	(de),a
                           2298 ; genPlus
                           2299 ; genPlusIncr
   086A 11 67 01           2300 	ld	de,#_playfield + 0 + 167
                           2301 ; genAssign (pointer)
   086D 3E 00              2302 	ld	a,#0x00
   086F 12                 2303 	ld	(de),a
                           2304 ; genPlus
                           2305 ; genPlusIncr
   0870 11 68 01           2306 	ld	de,#_playfield + 0 + 168
                           2307 ; genAssign (pointer)
   0873 3E 00              2308 	ld	a,#0x00
   0875 12                 2309 	ld	(de),a
                           2310 ; genPlus
                           2311 ; genPlusIncr
   0876 11 69 01           2312 	ld	de,#_playfield + 0 + 169
                           2313 ; genAssign (pointer)
   0879 3E 00              2314 	ld	a,#0x00
   087B 12                 2315 	ld	(de),a
                           2316 ; genPlus
                           2317 ; genPlusIncr
   087C 11 6A 01           2318 	ld	de,#_playfield + 0 + 170
                           2319 ; genAssign (pointer)
   087F 3E 00              2320 	ld	a,#0x00
   0881 12                 2321 	ld	(de),a
                           2322 ; genPlus
                           2323 ; genPlusIncr
   0882 11 6B 01           2324 	ld	de,#_playfield + 0 + 171
                           2325 ; genAssign (pointer)
   0885 3E 00              2326 	ld	a,#0x00
   0887 12                 2327 	ld	(de),a
                           2328 ; genPlus
                           2329 ; genPlusIncr
   0888 11 6C 01           2330 	ld	de,#_playfield + 0 + 172
                           2331 ; genAssign (pointer)
   088B 3E 00              2332 	ld	a,#0x00
   088D 12                 2333 	ld	(de),a
                           2334 ; genPlus
                           2335 ; genPlusIncr
   088E 11 6D 01           2336 	ld	de,#_playfield + 0 + 173
                           2337 ; genAssign (pointer)
   0891 3E 00              2338 	ld	a,#0x00
   0893 12                 2339 	ld	(de),a
                           2340 ; genPlus
                           2341 ; genPlusIncr
   0894 11 6E 01           2342 	ld	de,#_playfield + 0 + 174
                           2343 ; genAssign (pointer)
   0897 3E 00              2344 	ld	a,#0x00
   0899 12                 2345 	ld	(de),a
                           2346 ; genPlus
                           2347 ; genPlusIncr
   089A 11 6F 01           2348 	ld	de,#_playfield + 0 + 175
                           2349 ; genAssign (pointer)
   089D 3E 00              2350 	ld	a,#0x00
   089F 12                 2351 	ld	(de),a
                           2352 ; genPlus
                           2353 ; genPlusIncr
   08A0 11 70 01           2354 	ld	de,#_playfield + 0 + 176
                           2355 ; genAssign (pointer)
   08A3 3E 00              2356 	ld	a,#0x00
   08A5 12                 2357 	ld	(de),a
                           2358 ; genPlus
                           2359 ; genPlusIncr
   08A6 11 71 01           2360 	ld	de,#_playfield + 0 + 177
                           2361 ; genAssign (pointer)
   08A9 3E 00              2362 	ld	a,#0x00
   08AB 12                 2363 	ld	(de),a
                           2364 ; genPlus
                           2365 ; genPlusIncr
   08AC 11 72 01           2366 	ld	de,#_playfield + 0 + 178
                           2367 ; genAssign (pointer)
   08AF 3E 00              2368 	ld	a,#0x00
   08B1 12                 2369 	ld	(de),a
                           2370 ; genPlus
                           2371 ; genPlusIncr
   08B2 11 73 01           2372 	ld	de,#_playfield + 0 + 179
                           2373 ; genAssign (pointer)
   08B5 3E 03              2374 	ld	a,#0x03
   08B7 12                 2375 	ld	(de),a
                           2376 ; genPlus
                           2377 ; genPlusIncr
   08B8 11 74 01           2378 	ld	de,#_playfield + 0 + 180
                           2379 ; genAssign (pointer)
   08BB 3E 03              2380 	ld	a,#0x03
   08BD 12                 2381 	ld	(de),a
                           2382 ; genPlus
                           2383 ; genPlusIncr
   08BE 11 75 01           2384 	ld	de,#_playfield + 0 + 181
                           2385 ; genAssign (pointer)
   08C1 3E 00              2386 	ld	a,#0x00
   08C3 12                 2387 	ld	(de),a
                           2388 ; genPlus
                           2389 ; genPlusIncr
   08C4 11 76 01           2390 	ld	de,#_playfield + 0 + 182
                           2391 ; genAssign (pointer)
   08C7 3E 00              2392 	ld	a,#0x00
   08C9 12                 2393 	ld	(de),a
                           2394 ; genPlus
                           2395 ; genPlusIncr
   08CA 11 77 01           2396 	ld	de,#_playfield + 0 + 183
                           2397 ; genAssign (pointer)
   08CD 3E 00              2398 	ld	a,#0x00
   08CF 12                 2399 	ld	(de),a
                           2400 ; genPlus
                           2401 ; genPlusIncr
   08D0 11 78 01           2402 	ld	de,#_playfield + 0 + 184
                           2403 ; genAssign (pointer)
   08D3 3E 00              2404 	ld	a,#0x00
   08D5 12                 2405 	ld	(de),a
                           2406 ; genPlus
                           2407 ; genPlusIncr
   08D6 11 79 01           2408 	ld	de,#_playfield + 0 + 185
                           2409 ; genAssign (pointer)
   08D9 3E 00              2410 	ld	a,#0x00
   08DB 12                 2411 	ld	(de),a
                           2412 ; genPlus
                           2413 ; genPlusIncr
   08DC 11 7A 01           2414 	ld	de,#_playfield + 0 + 186
                           2415 ; genAssign (pointer)
   08DF 3E 00              2416 	ld	a,#0x00
   08E1 12                 2417 	ld	(de),a
                           2418 ; genPlus
                           2419 ; genPlusIncr
   08E2 11 7B 01           2420 	ld	de,#_playfield + 0 + 187
                           2421 ; genAssign (pointer)
   08E5 3E 00              2422 	ld	a,#0x00
   08E7 12                 2423 	ld	(de),a
                           2424 ; genPlus
                           2425 ; genPlusIncr
   08E8 11 7C 01           2426 	ld	de,#_playfield + 0 + 188
                           2427 ; genAssign (pointer)
   08EB 3E 00              2428 	ld	a,#0x00
   08ED 12                 2429 	ld	(de),a
                           2430 ; genPlus
                           2431 ; genPlusIncr
   08EE 11 7D 01           2432 	ld	de,#_playfield + 0 + 189
                           2433 ; genAssign (pointer)
   08F1 3E 00              2434 	ld	a,#0x00
   08F3 12                 2435 	ld	(de),a
                           2436 ; genPlus
                           2437 ; genPlusIncr
   08F4 11 7E 01           2438 	ld	de,#_playfield + 0 + 190
                           2439 ; genAssign (pointer)
   08F7 3E 00              2440 	ld	a,#0x00
   08F9 12                 2441 	ld	(de),a
                           2442 ; genPlus
                           2443 ; genPlusIncr
   08FA 11 7F 01           2444 	ld	de,#_playfield + 0 + 191
                           2445 ; genAssign (pointer)
   08FD 3E 00              2446 	ld	a,#0x00
   08FF 12                 2447 	ld	(de),a
                           2448 ; genPlus
                           2449 ; genPlusIncr
   0900 11 80 01           2450 	ld	de,#_playfield + 0 + 192
                           2451 ; genAssign (pointer)
   0903 3E 00              2452 	ld	a,#0x00
   0905 12                 2453 	ld	(de),a
                           2454 ; genPlus
                           2455 ; genPlusIncr
   0906 11 81 01           2456 	ld	de,#_playfield + 0 + 193
                           2457 ; genAssign (pointer)
   0909 3E 00              2458 	ld	a,#0x00
   090B 12                 2459 	ld	(de),a
                           2460 ; genPlus
                           2461 ; genPlusIncr
   090C 11 82 01           2462 	ld	de,#_playfield + 0 + 194
                           2463 ; genAssign (pointer)
   090F 3E 00              2464 	ld	a,#0x00
   0911 12                 2465 	ld	(de),a
                           2466 ; genPlus
                           2467 ; genPlusIncr
   0912 11 83 01           2468 	ld	de,#_playfield + 0 + 195
                           2469 ; genAssign (pointer)
   0915 3E 00              2470 	ld	a,#0x00
   0917 12                 2471 	ld	(de),a
                           2472 ; genPlus
                           2473 ; genPlusIncr
   0918 11 84 01           2474 	ld	de,#_playfield + 0 + 196
                           2475 ; genAssign (pointer)
   091B 3E 00              2476 	ld	a,#0x00
   091D 12                 2477 	ld	(de),a
                           2478 ; genPlus
                           2479 ; genPlusIncr
   091E 11 85 01           2480 	ld	de,#_playfield + 0 + 197
                           2481 ; genAssign (pointer)
   0921 3E 00              2482 	ld	a,#0x00
   0923 12                 2483 	ld	(de),a
                           2484 ; genPlus
                           2485 ; genPlusIncr
   0924 11 86 01           2486 	ld	de,#_playfield + 0 + 198
                           2487 ; genAssign (pointer)
   0927 3E 00              2488 	ld	a,#0x00
   0929 12                 2489 	ld	(de),a
                           2490 ; genPlus
                           2491 ; genPlusIncr
   092A 11 87 01           2492 	ld	de,#_playfield + 0 + 199
                           2493 ; genAssign (pointer)
   092D 3E 03              2494 	ld	a,#0x03
   092F 12                 2495 	ld	(de),a
                           2496 ; genPlus
                           2497 ; genPlusIncr
   0930 11 88 01           2498 	ld	de,#_playfield + 0 + 200
                           2499 ; genAssign (pointer)
   0933 3E 03              2500 	ld	a,#0x03
   0935 12                 2501 	ld	(de),a
                           2502 ; genPlus
                           2503 ; genPlusIncr
   0936 11 89 01           2504 	ld	de,#_playfield + 0 + 201
                           2505 ; genAssign (pointer)
   0939 3E 10              2506 	ld	a,#0x10
   093B 12                 2507 	ld	(de),a
                           2508 ; genPlus
                           2509 ; genPlusIncr
   093C 11 8A 01           2510 	ld	de,#_playfield + 0 + 202
                           2511 ; genAssign (pointer)
   093F 3E 10              2512 	ld	a,#0x10
   0941 12                 2513 	ld	(de),a
                           2514 ; genPlus
                           2515 ; genPlusIncr
   0942 11 8B 01           2516 	ld	de,#_playfield + 0 + 203
                           2517 ; genAssign (pointer)
   0945 3E 00              2518 	ld	a,#0x00
   0947 12                 2519 	ld	(de),a
                           2520 ; genPlus
                           2521 ; genPlusIncr
   0948 11 8C 01           2522 	ld	de,#_playfield + 0 + 204
                           2523 ; genAssign (pointer)
   094B 3E 00              2524 	ld	a,#0x00
   094D 12                 2525 	ld	(de),a
                           2526 ; genPlus
                           2527 ; genPlusIncr
   094E 11 8D 01           2528 	ld	de,#_playfield + 0 + 205
                           2529 ; genAssign (pointer)
   0951 3E 00              2530 	ld	a,#0x00
   0953 12                 2531 	ld	(de),a
                           2532 ; genPlus
                           2533 ; genPlusIncr
   0954 11 8E 01           2534 	ld	de,#_playfield + 0 + 206
                           2535 ; genAssign (pointer)
   0957 3E 00              2536 	ld	a,#0x00
   0959 12                 2537 	ld	(de),a
                           2538 ; genPlus
                           2539 ; genPlusIncr
   095A 11 8F 01           2540 	ld	de,#_playfield + 0 + 207
                           2541 ; genAssign (pointer)
   095D 3E 00              2542 	ld	a,#0x00
   095F 12                 2543 	ld	(de),a
                           2544 ; genPlus
                           2545 ; genPlusIncr
   0960 11 90 01           2546 	ld	de,#_playfield + 0 + 208
                           2547 ; genAssign (pointer)
   0963 3E 00              2548 	ld	a,#0x00
   0965 12                 2549 	ld	(de),a
                           2550 ; genPlus
                           2551 ; genPlusIncr
   0966 11 91 01           2552 	ld	de,#_playfield + 0 + 209
                           2553 ; genAssign (pointer)
   0969 3E 00              2554 	ld	a,#0x00
   096B 12                 2555 	ld	(de),a
                           2556 ; genPlus
                           2557 ; genPlusIncr
   096C 11 92 01           2558 	ld	de,#_playfield + 0 + 210
                           2559 ; genAssign (pointer)
   096F 3E 00              2560 	ld	a,#0x00
   0971 12                 2561 	ld	(de),a
                           2562 ; genPlus
                           2563 ; genPlusIncr
   0972 11 93 01           2564 	ld	de,#_playfield + 0 + 211
                           2565 ; genAssign (pointer)
   0975 3E 00              2566 	ld	a,#0x00
   0977 12                 2567 	ld	(de),a
                           2568 ; genPlus
                           2569 ; genPlusIncr
   0978 11 94 01           2570 	ld	de,#_playfield + 0 + 212
                           2571 ; genAssign (pointer)
   097B 3E 00              2572 	ld	a,#0x00
   097D 12                 2573 	ld	(de),a
                           2574 ; genPlus
                           2575 ; genPlusIncr
   097E 11 95 01           2576 	ld	de,#_playfield + 0 + 213
                           2577 ; genAssign (pointer)
   0981 3E 00              2578 	ld	a,#0x00
   0983 12                 2579 	ld	(de),a
                           2580 ; genPlus
                           2581 ; genPlusIncr
   0984 11 96 01           2582 	ld	de,#_playfield + 0 + 214
                           2583 ; genAssign (pointer)
   0987 3E 00              2584 	ld	a,#0x00
   0989 12                 2585 	ld	(de),a
                           2586 ; genPlus
                           2587 ; genPlusIncr
   098A 11 97 01           2588 	ld	de,#_playfield + 0 + 215
                           2589 ; genAssign (pointer)
   098D 3E 00              2590 	ld	a,#0x00
   098F 12                 2591 	ld	(de),a
                           2592 ; genPlus
                           2593 ; genPlusIncr
   0990 11 98 01           2594 	ld	de,#_playfield + 0 + 216
                           2595 ; genAssign (pointer)
   0993 3E 00              2596 	ld	a,#0x00
   0995 12                 2597 	ld	(de),a
                           2598 ; genPlus
                           2599 ; genPlusIncr
   0996 11 99 01           2600 	ld	de,#_playfield + 0 + 217
                           2601 ; genAssign (pointer)
   0999 3E 00              2602 	ld	a,#0x00
   099B 12                 2603 	ld	(de),a
                           2604 ; genPlus
                           2605 ; genPlusIncr
   099C 11 9A 01           2606 	ld	de,#_playfield + 0 + 218
                           2607 ; genAssign (pointer)
   099F 3E 00              2608 	ld	a,#0x00
   09A1 12                 2609 	ld	(de),a
                           2610 ; genPlus
                           2611 ; genPlusIncr
   09A2 11 9B 01           2612 	ld	de,#_playfield + 0 + 219
                           2613 ; genAssign (pointer)
   09A5 3E 03              2614 	ld	a,#0x03
   09A7 12                 2615 	ld	(de),a
                           2616 ; genPlus
                           2617 ; genPlusIncr
   09A8 11 9C 01           2618 	ld	de,#_playfield + 0 + 220
                           2619 ; genAssign (pointer)
   09AB 3E 02              2620 	ld	a,#0x02
   09AD 12                 2621 	ld	(de),a
                           2622 ; genPlus
                           2623 ; genPlusIncr
   09AE 11 9D 01           2624 	ld	de,#_playfield + 0 + 221
                           2625 ; genAssign (pointer)
   09B1 3E 10              2626 	ld	a,#0x10
   09B3 12                 2627 	ld	(de),a
                           2628 ; genPlus
                           2629 ; genPlusIncr
   09B4 11 9E 01           2630 	ld	de,#_playfield + 0 + 222
                           2631 ; genAssign (pointer)
   09B7 3E 10              2632 	ld	a,#0x10
   09B9 12                 2633 	ld	(de),a
                           2634 ; genPlus
                           2635 ; genPlusIncr
   09BA 11 9F 01           2636 	ld	de,#_playfield + 0 + 223
                           2637 ; genAssign (pointer)
   09BD 3E 00              2638 	ld	a,#0x00
   09BF 12                 2639 	ld	(de),a
                           2640 ; genPlus
                           2641 ; genPlusIncr
   09C0 11 A0 01           2642 	ld	de,#_playfield + 0 + 224
                           2643 ; genAssign (pointer)
   09C3 3E 00              2644 	ld	a,#0x00
   09C5 12                 2645 	ld	(de),a
                           2646 ; genPlus
                           2647 ; genPlusIncr
   09C6 11 A1 01           2648 	ld	de,#_playfield + 0 + 225
                           2649 ; genAssign (pointer)
   09C9 3E 00              2650 	ld	a,#0x00
   09CB 12                 2651 	ld	(de),a
                           2652 ; genPlus
                           2653 ; genPlusIncr
   09CC 11 A2 01           2654 	ld	de,#_playfield + 0 + 226
                           2655 ; genAssign (pointer)
   09CF 3E 00              2656 	ld	a,#0x00
   09D1 12                 2657 	ld	(de),a
                           2658 ; genPlus
                           2659 ; genPlusIncr
   09D2 11 A3 01           2660 	ld	de,#_playfield + 0 + 227
                           2661 ; genAssign (pointer)
   09D5 3E 00              2662 	ld	a,#0x00
   09D7 12                 2663 	ld	(de),a
                           2664 ; genPlus
                           2665 ; genPlusIncr
   09D8 11 A4 01           2666 	ld	de,#_playfield + 0 + 228
                           2667 ; genAssign (pointer)
   09DB 3E 00              2668 	ld	a,#0x00
   09DD 12                 2669 	ld	(de),a
                           2670 ; genPlus
                           2671 ; genPlusIncr
   09DE 11 A5 01           2672 	ld	de,#_playfield + 0 + 229
                           2673 ; genAssign (pointer)
   09E1 3E 00              2674 	ld	a,#0x00
   09E3 12                 2675 	ld	(de),a
                           2676 ; genPlus
                           2677 ; genPlusIncr
   09E4 11 A6 01           2678 	ld	de,#_playfield + 0 + 230
                           2679 ; genAssign (pointer)
   09E7 3E 00              2680 	ld	a,#0x00
   09E9 12                 2681 	ld	(de),a
                           2682 ; genPlus
                           2683 ; genPlusIncr
   09EA 11 A7 01           2684 	ld	de,#_playfield + 0 + 231
                           2685 ; genAssign (pointer)
   09ED 3E 00              2686 	ld	a,#0x00
   09EF 12                 2687 	ld	(de),a
                           2688 ; genPlus
                           2689 ; genPlusIncr
   09F0 11 A8 01           2690 	ld	de,#_playfield + 0 + 232
                           2691 ; genAssign (pointer)
   09F3 3E 00              2692 	ld	a,#0x00
   09F5 12                 2693 	ld	(de),a
                           2694 ; genPlus
                           2695 ; genPlusIncr
   09F6 11 A9 01           2696 	ld	de,#_playfield + 0 + 233
                           2697 ; genAssign (pointer)
   09F9 3E 00              2698 	ld	a,#0x00
   09FB 12                 2699 	ld	(de),a
                           2700 ; genPlus
                           2701 ; genPlusIncr
   09FC 11 AA 01           2702 	ld	de,#_playfield + 0 + 234
                           2703 ; genAssign (pointer)
   09FF 3E 00              2704 	ld	a,#0x00
   0A01 12                 2705 	ld	(de),a
                           2706 ; genPlus
                           2707 ; genPlusIncr
   0A02 11 AB 01           2708 	ld	de,#_playfield + 0 + 235
                           2709 ; genAssign (pointer)
   0A05 3E 00              2710 	ld	a,#0x00
   0A07 12                 2711 	ld	(de),a
                           2712 ; genPlus
                           2713 ; genPlusIncr
   0A08 11 AC 01           2714 	ld	de,#_playfield + 0 + 236
                           2715 ; genAssign (pointer)
   0A0B 3E 00              2716 	ld	a,#0x00
   0A0D 12                 2717 	ld	(de),a
                           2718 ; genPlus
                           2719 ; genPlusIncr
   0A0E 11 AD 01           2720 	ld	de,#_playfield + 0 + 237
                           2721 ; genAssign (pointer)
   0A11 3E 00              2722 	ld	a,#0x00
   0A13 12                 2723 	ld	(de),a
                           2724 ; genPlus
                           2725 ; genPlusIncr
   0A14 11 AE 01           2726 	ld	de,#_playfield + 0 + 238
                           2727 ; genAssign (pointer)
   0A17 3E 00              2728 	ld	a,#0x00
   0A19 12                 2729 	ld	(de),a
                           2730 ; genPlus
                           2731 ; genPlusIncr
   0A1A 11 AF 01           2732 	ld	de,#_playfield + 0 + 239
                           2733 ; genAssign (pointer)
   0A1D 3E 02              2734 	ld	a,#0x02
   0A1F 12                 2735 	ld	(de),a
                           2736 ; genPlus
                           2737 ; genPlusIncr
   0A20 11 B0 01           2738 	ld	de,#_playfield + 0 + 240
                           2739 ; genAssign (pointer)
   0A23 3E 02              2740 	ld	a,#0x02
   0A25 12                 2741 	ld	(de),a
                           2742 ; genPlus
                           2743 ; genPlusIncr
   0A26 11 B1 01           2744 	ld	de,#_playfield + 0 + 241
                           2745 ; genAssign (pointer)
   0A29 3E 10              2746 	ld	a,#0x10
   0A2B 12                 2747 	ld	(de),a
                           2748 ; genPlus
                           2749 ; genPlusIncr
   0A2C 11 B2 01           2750 	ld	de,#_playfield + 0 + 242
                           2751 ; genAssign (pointer)
   0A2F 3E 10              2752 	ld	a,#0x10
   0A31 12                 2753 	ld	(de),a
                           2754 ; genPlus
                           2755 ; genPlusIncr
   0A32 11 B3 01           2756 	ld	de,#_playfield + 0 + 243
                           2757 ; genAssign (pointer)
   0A35 3E 00              2758 	ld	a,#0x00
   0A37 12                 2759 	ld	(de),a
                           2760 ; genPlus
                           2761 ; genPlusIncr
   0A38 11 B4 01           2762 	ld	de,#_playfield + 0 + 244
                           2763 ; genAssign (pointer)
   0A3B 3E 00              2764 	ld	a,#0x00
   0A3D 12                 2765 	ld	(de),a
                           2766 ; genPlus
                           2767 ; genPlusIncr
   0A3E 11 B5 01           2768 	ld	de,#_playfield + 0 + 245
                           2769 ; genAssign (pointer)
   0A41 3E 00              2770 	ld	a,#0x00
   0A43 12                 2771 	ld	(de),a
                           2772 ; genPlus
                           2773 ; genPlusIncr
   0A44 11 B6 01           2774 	ld	de,#_playfield + 0 + 246
                           2775 ; genAssign (pointer)
   0A47 3E 00              2776 	ld	a,#0x00
   0A49 12                 2777 	ld	(de),a
                           2778 ; genPlus
                           2779 ; genPlusIncr
   0A4A 11 B7 01           2780 	ld	de,#_playfield + 0 + 247
                           2781 ; genAssign (pointer)
   0A4D 3E 00              2782 	ld	a,#0x00
   0A4F 12                 2783 	ld	(de),a
                           2784 ; genPlus
                           2785 ; genPlusIncr
   0A50 11 B8 01           2786 	ld	de,#_playfield + 0 + 248
                           2787 ; genAssign (pointer)
   0A53 3E 00              2788 	ld	a,#0x00
   0A55 12                 2789 	ld	(de),a
                           2790 ; genPlus
                           2791 ; genPlusIncr
   0A56 11 B9 01           2792 	ld	de,#_playfield + 0 + 249
                           2793 ; genAssign (pointer)
   0A59 3E 00              2794 	ld	a,#0x00
   0A5B 12                 2795 	ld	(de),a
                           2796 ; genPlus
                           2797 ; genPlusIncr
   0A5C 11 BA 01           2798 	ld	de,#_playfield + 0 + 250
                           2799 ; genAssign (pointer)
   0A5F 3E 00              2800 	ld	a,#0x00
   0A61 12                 2801 	ld	(de),a
                           2802 ; genPlus
                           2803 ; genPlusIncr
   0A62 11 BB 01           2804 	ld	de,#_playfield + 0 + 251
                           2805 ; genAssign (pointer)
   0A65 3E 00              2806 	ld	a,#0x00
   0A67 12                 2807 	ld	(de),a
                           2808 ; genPlus
                           2809 ; genPlusIncr
   0A68 11 BC 01           2810 	ld	de,#_playfield + 0 + 252
                           2811 ; genAssign (pointer)
   0A6B 3E 00              2812 	ld	a,#0x00
   0A6D 12                 2813 	ld	(de),a
                           2814 ; genPlus
                           2815 ; genPlusIncr
   0A6E 11 BD 01           2816 	ld	de,#_playfield + 0 + 253
                           2817 ; genAssign (pointer)
   0A71 3E 00              2818 	ld	a,#0x00
   0A73 12                 2819 	ld	(de),a
                           2820 ; genPlus
                           2821 ; genPlusIncr
   0A74 11 BE 01           2822 	ld	de,#_playfield + 0 + 254
                           2823 ; genAssign (pointer)
   0A77 3E 00              2824 	ld	a,#0x00
   0A79 12                 2825 	ld	(de),a
                           2826 ; genPlus
                           2827 ; genPlusIncr
   0A7A 11 BF 01           2828 	ld	de,#_playfield + 0 + 255
                           2829 ; genAssign (pointer)
   0A7D 3E 00              2830 	ld	a,#0x00
   0A7F 12                 2831 	ld	(de),a
                           2832 ; genPlus
                           2833 ; genPlusIncr
   0A80 11 C0 01           2834 	ld	de,#_playfield + 0 + 256
                           2835 ; genAssign (pointer)
   0A83 3E 00              2836 	ld	a,#0x00
   0A85 12                 2837 	ld	(de),a
                           2838 ; genPlus
                           2839 ; genPlusIncr
   0A86 11 C1 01           2840 	ld	de,#_playfield + 0 + 257
                           2841 ; genAssign (pointer)
   0A89 3E 00              2842 	ld	a,#0x00
   0A8B 12                 2843 	ld	(de),a
                           2844 ; genPlus
                           2845 ; genPlusIncr
   0A8C 11 C2 01           2846 	ld	de,#_playfield + 0 + 258
                           2847 ; genAssign (pointer)
   0A8F 3E 00              2848 	ld	a,#0x00
   0A91 12                 2849 	ld	(de),a
                           2850 ; genPlus
                           2851 ; genPlusIncr
   0A92 11 C3 01           2852 	ld	de,#_playfield + 0 + 259
                           2853 ; genAssign (pointer)
   0A95 3E 02              2854 	ld	a,#0x02
   0A97 12                 2855 	ld	(de),a
                           2856 ; genPlus
                           2857 ; genPlusIncr
   0A98 11 C4 01           2858 	ld	de,#_playfield + 0 + 260
                           2859 ; genAssign (pointer)
   0A9B 3E 02              2860 	ld	a,#0x02
   0A9D 12                 2861 	ld	(de),a
                           2862 ; genPlus
                           2863 ; genPlusIncr
   0A9E 11 C5 01           2864 	ld	de,#_playfield + 0 + 261
                           2865 ; genAssign (pointer)
   0AA1 3E 10              2866 	ld	a,#0x10
   0AA3 12                 2867 	ld	(de),a
                           2868 ; genPlus
                           2869 ; genPlusIncr
   0AA4 11 C6 01           2870 	ld	de,#_playfield + 0 + 262
                           2871 ; genAssign (pointer)
   0AA7 3E 10              2872 	ld	a,#0x10
   0AA9 12                 2873 	ld	(de),a
                           2874 ; genPlus
                           2875 ; genPlusIncr
   0AAA 11 C7 01           2876 	ld	de,#_playfield + 0 + 263
                           2877 ; genAssign (pointer)
   0AAD 3E 00              2878 	ld	a,#0x00
   0AAF 12                 2879 	ld	(de),a
                           2880 ; genPlus
                           2881 ; genPlusIncr
   0AB0 11 C8 01           2882 	ld	de,#_playfield + 0 + 264
                           2883 ; genAssign (pointer)
   0AB3 3E 00              2884 	ld	a,#0x00
   0AB5 12                 2885 	ld	(de),a
                           2886 ; genPlus
                           2887 ; genPlusIncr
   0AB6 11 C9 01           2888 	ld	de,#_playfield + 0 + 265
                           2889 ; genAssign (pointer)
   0AB9 3E 00              2890 	ld	a,#0x00
   0ABB 12                 2891 	ld	(de),a
                           2892 ; genPlus
                           2893 ; genPlusIncr
   0ABC 11 CA 01           2894 	ld	de,#_playfield + 0 + 266
                           2895 ; genAssign (pointer)
   0ABF 3E 00              2896 	ld	a,#0x00
   0AC1 12                 2897 	ld	(de),a
                           2898 ; genPlus
                           2899 ; genPlusIncr
   0AC2 11 CB 01           2900 	ld	de,#_playfield + 0 + 267
                           2901 ; genAssign (pointer)
   0AC5 3E 00              2902 	ld	a,#0x00
   0AC7 12                 2903 	ld	(de),a
                           2904 ; genPlus
                           2905 ; genPlusIncr
   0AC8 11 CC 01           2906 	ld	de,#_playfield + 0 + 268
                           2907 ; genAssign (pointer)
   0ACB 3E 00              2908 	ld	a,#0x00
   0ACD 12                 2909 	ld	(de),a
                           2910 ; genPlus
                           2911 ; genPlusIncr
   0ACE 11 CD 01           2912 	ld	de,#_playfield + 0 + 269
                           2913 ; genAssign (pointer)
   0AD1 3E 00              2914 	ld	a,#0x00
   0AD3 12                 2915 	ld	(de),a
                           2916 ; genPlus
                           2917 ; genPlusIncr
   0AD4 11 CE 01           2918 	ld	de,#_playfield + 0 + 270
                           2919 ; genAssign (pointer)
   0AD7 3E 00              2920 	ld	a,#0x00
   0AD9 12                 2921 	ld	(de),a
                           2922 ; genPlus
                           2923 ; genPlusIncr
   0ADA 11 CF 01           2924 	ld	de,#_playfield + 0 + 271
                           2925 ; genAssign (pointer)
   0ADD 3E 00              2926 	ld	a,#0x00
   0ADF 12                 2927 	ld	(de),a
                           2928 ; genPlus
                           2929 ; genPlusIncr
   0AE0 11 D0 01           2930 	ld	de,#_playfield + 0 + 272
                           2931 ; genAssign (pointer)
   0AE3 3E 00              2932 	ld	a,#0x00
   0AE5 12                 2933 	ld	(de),a
                           2934 ; genPlus
                           2935 ; genPlusIncr
   0AE6 11 D1 01           2936 	ld	de,#_playfield + 0 + 273
                           2937 ; genAssign (pointer)
   0AE9 3E 00              2938 	ld	a,#0x00
   0AEB 12                 2939 	ld	(de),a
                           2940 ; genPlus
                           2941 ; genPlusIncr
   0AEC 11 D2 01           2942 	ld	de,#_playfield + 0 + 274
                           2943 ; genAssign (pointer)
   0AEF 3E 00              2944 	ld	a,#0x00
   0AF1 12                 2945 	ld	(de),a
                           2946 ; genPlus
                           2947 ; genPlusIncr
   0AF2 11 D3 01           2948 	ld	de,#_playfield + 0 + 275
                           2949 ; genAssign (pointer)
   0AF5 3E 00              2950 	ld	a,#0x00
   0AF7 12                 2951 	ld	(de),a
                           2952 ; genPlus
                           2953 ; genPlusIncr
   0AF8 11 D4 01           2954 	ld	de,#_playfield + 0 + 276
                           2955 ; genAssign (pointer)
   0AFB 3E 00              2956 	ld	a,#0x00
   0AFD 12                 2957 	ld	(de),a
                           2958 ; genPlus
                           2959 ; genPlusIncr
   0AFE 11 D5 01           2960 	ld	de,#_playfield + 0 + 277
                           2961 ; genAssign (pointer)
   0B01 3E 00              2962 	ld	a,#0x00
   0B03 12                 2963 	ld	(de),a
                           2964 ; genPlus
                           2965 ; genPlusIncr
   0B04 11 D6 01           2966 	ld	de,#_playfield + 0 + 278
                           2967 ; genAssign (pointer)
   0B07 3E 00              2968 	ld	a,#0x00
   0B09 12                 2969 	ld	(de),a
                           2970 ; genPlus
                           2971 ; genPlusIncr
   0B0A 11 D7 01           2972 	ld	de,#_playfield + 0 + 279
                           2973 ; genAssign (pointer)
   0B0D 3E 02              2974 	ld	a,#0x02
   0B0F 12                 2975 	ld	(de),a
                           2976 ; genPlus
                           2977 ; genPlusIncr
   0B10 11 D8 01           2978 	ld	de,#_playfield + 0 + 280
                           2979 ; genAssign (pointer)
   0B13 3E 01              2980 	ld	a,#0x01
   0B15 12                 2981 	ld	(de),a
                           2982 ; genPlus
                           2983 ; genPlusIncr
   0B16 11 D9 01           2984 	ld	de,#_playfield + 0 + 281
                           2985 ; genAssign (pointer)
   0B19 3E 00              2986 	ld	a,#0x00
   0B1B 12                 2987 	ld	(de),a
                           2988 ; genPlus
                           2989 ; genPlusIncr
   0B1C 11 DA 01           2990 	ld	de,#_playfield + 0 + 282
                           2991 ; genAssign (pointer)
   0B1F 3E 10              2992 	ld	a,#0x10
   0B21 12                 2993 	ld	(de),a
                           2994 ; genPlus
                           2995 ; genPlusIncr
   0B22 11 DB 01           2996 	ld	de,#_playfield + 0 + 283
                           2997 ; genAssign (pointer)
   0B25 3E 10              2998 	ld	a,#0x10
   0B27 12                 2999 	ld	(de),a
                           3000 ; genPlus
                           3001 ; genPlusIncr
   0B28 11 DC 01           3002 	ld	de,#_playfield + 0 + 284
                           3003 ; genAssign (pointer)
   0B2B 3E 10              3004 	ld	a,#0x10
   0B2D 12                 3005 	ld	(de),a
                           3006 ; genPlus
                           3007 ; genPlusIncr
   0B2E 11 DD 01           3008 	ld	de,#_playfield + 0 + 285
                           3009 ; genAssign (pointer)
   0B31 3E 10              3010 	ld	a,#0x10
   0B33 12                 3011 	ld	(de),a
                           3012 ; genPlus
                           3013 ; genPlusIncr
   0B34 11 DE 01           3014 	ld	de,#_playfield + 0 + 286
                           3015 ; genAssign (pointer)
   0B37 3E 10              3016 	ld	a,#0x10
   0B39 12                 3017 	ld	(de),a
                           3018 ; genPlus
                           3019 ; genPlusIncr
   0B3A 11 DF 01           3020 	ld	de,#_playfield + 0 + 287
                           3021 ; genAssign (pointer)
   0B3D 3E 10              3022 	ld	a,#0x10
   0B3F 12                 3023 	ld	(de),a
                           3024 ; genPlus
                           3025 ; genPlusIncr
   0B40 11 E0 01           3026 	ld	de,#_playfield + 0 + 288
                           3027 ; genAssign (pointer)
   0B43 3E 10              3028 	ld	a,#0x10
   0B45 12                 3029 	ld	(de),a
                           3030 ; genPlus
                           3031 ; genPlusIncr
   0B46 11 E1 01           3032 	ld	de,#_playfield + 0 + 289
                           3033 ; genAssign (pointer)
   0B49 3E 10              3034 	ld	a,#0x10
   0B4B 12                 3035 	ld	(de),a
                           3036 ; genPlus
                           3037 ; genPlusIncr
   0B4C 11 E2 01           3038 	ld	de,#_playfield + 0 + 290
                           3039 ; genAssign (pointer)
   0B4F 3E 10              3040 	ld	a,#0x10
   0B51 12                 3041 	ld	(de),a
                           3042 ; genPlus
                           3043 ; genPlusIncr
   0B52 11 E3 01           3044 	ld	de,#_playfield + 0 + 291
                           3045 ; genAssign (pointer)
   0B55 3E 10              3046 	ld	a,#0x10
   0B57 12                 3047 	ld	(de),a
                           3048 ; genPlus
                           3049 ; genPlusIncr
   0B58 11 E4 01           3050 	ld	de,#_playfield + 0 + 292
                           3051 ; genAssign (pointer)
   0B5B 3E 00              3052 	ld	a,#0x00
   0B5D 12                 3053 	ld	(de),a
                           3054 ; genPlus
                           3055 ; genPlusIncr
   0B5E 11 E5 01           3056 	ld	de,#_playfield + 0 + 293
                           3057 ; genAssign (pointer)
   0B61 3E 00              3058 	ld	a,#0x00
   0B63 12                 3059 	ld	(de),a
                           3060 ; genPlus
                           3061 ; genPlusIncr
   0B64 11 E6 01           3062 	ld	de,#_playfield + 0 + 294
                           3063 ; genAssign (pointer)
   0B67 3E 00              3064 	ld	a,#0x00
   0B69 12                 3065 	ld	(de),a
                           3066 ; genPlus
                           3067 ; genPlusIncr
   0B6A 11 E7 01           3068 	ld	de,#_playfield + 0 + 295
                           3069 ; genAssign (pointer)
   0B6D 3E 00              3070 	ld	a,#0x00
   0B6F 12                 3071 	ld	(de),a
                           3072 ; genPlus
                           3073 ; genPlusIncr
   0B70 11 E8 01           3074 	ld	de,#_playfield + 0 + 296
                           3075 ; genAssign (pointer)
   0B73 3E 00              3076 	ld	a,#0x00
   0B75 12                 3077 	ld	(de),a
                           3078 ; genPlus
                           3079 ; genPlusIncr
   0B76 11 E9 01           3080 	ld	de,#_playfield + 0 + 297
                           3081 ; genAssign (pointer)
   0B79 3E 00              3082 	ld	a,#0x00
   0B7B 12                 3083 	ld	(de),a
                           3084 ; genPlus
                           3085 ; genPlusIncr
   0B7C 11 EA 01           3086 	ld	de,#_playfield + 0 + 298
                           3087 ; genAssign (pointer)
   0B7F 3E 00              3088 	ld	a,#0x00
   0B81 12                 3089 	ld	(de),a
                           3090 ; genPlus
                           3091 ; genPlusIncr
   0B82 11 EB 01           3092 	ld	de,#_playfield + 0 + 299
                           3093 ; genAssign (pointer)
   0B85 3E 01              3094 	ld	a,#0x01
   0B87 12                 3095 	ld	(de),a
                           3096 ; genPlus
                           3097 ; genPlusIncr
   0B88 11 EC 01           3098 	ld	de,#_playfield + 0 + 300
                           3099 ; genAssign (pointer)
   0B8B 3E 01              3100 	ld	a,#0x01
   0B8D 12                 3101 	ld	(de),a
                           3102 ; genPlus
                           3103 ; genPlusIncr
   0B8E 11 ED 01           3104 	ld	de,#_playfield + 0 + 301
                           3105 ; genAssign (pointer)
   0B91 3E 10              3106 	ld	a,#0x10
   0B93 12                 3107 	ld	(de),a
                           3108 ; genPlus
                           3109 ; genPlusIncr
   0B94 11 EE 01           3110 	ld	de,#_playfield + 0 + 302
                           3111 ; genAssign (pointer)
   0B97 3E 10              3112 	ld	a,#0x10
   0B99 12                 3113 	ld	(de),a
                           3114 ; genPlus
                           3115 ; genPlusIncr
   0B9A 11 EF 01           3116 	ld	de,#_playfield + 0 + 303
                           3117 ; genAssign (pointer)
   0B9D 3E 10              3118 	ld	a,#0x10
   0B9F 12                 3119 	ld	(de),a
                           3120 ; genPlus
                           3121 ; genPlusIncr
   0BA0 11 F0 01           3122 	ld	de,#_playfield + 0 + 304
                           3123 ; genAssign (pointer)
   0BA3 3E 10              3124 	ld	a,#0x10
   0BA5 12                 3125 	ld	(de),a
                           3126 ; genPlus
                           3127 ; genPlusIncr
   0BA6 11 F1 01           3128 	ld	de,#_playfield + 0 + 305
                           3129 ; genAssign (pointer)
   0BA9 3E 10              3130 	ld	a,#0x10
   0BAB 12                 3131 	ld	(de),a
                           3132 ; genPlus
                           3133 ; genPlusIncr
   0BAC 11 F2 01           3134 	ld	de,#_playfield + 0 + 306
                           3135 ; genAssign (pointer)
   0BAF 3E 10              3136 	ld	a,#0x10
   0BB1 12                 3137 	ld	(de),a
                           3138 ; genPlus
                           3139 ; genPlusIncr
   0BB2 11 F3 01           3140 	ld	de,#_playfield + 0 + 307
                           3141 ; genAssign (pointer)
   0BB5 3E 10              3142 	ld	a,#0x10
   0BB7 12                 3143 	ld	(de),a
                           3144 ; genPlus
                           3145 ; genPlusIncr
   0BB8 11 F4 01           3146 	ld	de,#_playfield + 0 + 308
                           3147 ; genAssign (pointer)
   0BBB 3E 10              3148 	ld	a,#0x10
   0BBD 12                 3149 	ld	(de),a
                           3150 ; genPlus
                           3151 ; genPlusIncr
   0BBE 11 F5 01           3152 	ld	de,#_playfield + 0 + 309
                           3153 ; genAssign (pointer)
   0BC1 3E 10              3154 	ld	a,#0x10
   0BC3 12                 3155 	ld	(de),a
                           3156 ; genPlus
                           3157 ; genPlusIncr
   0BC4 11 F6 01           3158 	ld	de,#_playfield + 0 + 310
                           3159 ; genAssign (pointer)
   0BC7 3E 10              3160 	ld	a,#0x10
   0BC9 12                 3161 	ld	(de),a
                           3162 ; genPlus
                           3163 ; genPlusIncr
   0BCA 11 F7 01           3164 	ld	de,#_playfield + 0 + 311
                           3165 ; genAssign (pointer)
   0BCD 3E 10              3166 	ld	a,#0x10
   0BCF 12                 3167 	ld	(de),a
                           3168 ; genPlus
                           3169 ; genPlusIncr
   0BD0 11 F8 01           3170 	ld	de,#_playfield + 0 + 312
                           3171 ; genAssign (pointer)
   0BD3 3E 00              3172 	ld	a,#0x00
   0BD5 12                 3173 	ld	(de),a
                           3174 ; genPlus
                           3175 ; genPlusIncr
   0BD6 11 F9 01           3176 	ld	de,#_playfield + 0 + 313
                           3177 ; genAssign (pointer)
   0BD9 3E 00              3178 	ld	a,#0x00
   0BDB 12                 3179 	ld	(de),a
                           3180 ; genPlus
                           3181 ; genPlusIncr
   0BDC 11 FA 01           3182 	ld	de,#_playfield + 0 + 314
                           3183 ; genAssign (pointer)
   0BDF 3E 00              3184 	ld	a,#0x00
   0BE1 12                 3185 	ld	(de),a
                           3186 ; genPlus
                           3187 ; genPlusIncr
   0BE2 11 FB 01           3188 	ld	de,#_playfield + 0 + 315
                           3189 ; genAssign (pointer)
   0BE5 3E 00              3190 	ld	a,#0x00
   0BE7 12                 3191 	ld	(de),a
                           3192 ; genPlus
                           3193 ; genPlusIncr
   0BE8 11 FC 01           3194 	ld	de,#_playfield + 0 + 316
                           3195 ; genAssign (pointer)
   0BEB 3E 00              3196 	ld	a,#0x00
   0BED 12                 3197 	ld	(de),a
                           3198 ; genPlus
                           3199 ; genPlusIncr
   0BEE 11 FD 01           3200 	ld	de,#_playfield + 0 + 317
                           3201 ; genAssign (pointer)
   0BF1 3E 00              3202 	ld	a,#0x00
   0BF3 12                 3203 	ld	(de),a
                           3204 ; genPlus
                           3205 ; genPlusIncr
   0BF4 11 FE 01           3206 	ld	de,#_playfield + 0 + 318
                           3207 ; genAssign (pointer)
   0BF7 3E 00              3208 	ld	a,#0x00
   0BF9 12                 3209 	ld	(de),a
                           3210 ; genPlus
                           3211 ; genPlusIncr
   0BFA 11 FF 01           3212 	ld	de,#_playfield + 0 + 319
                           3213 ; genAssign (pointer)
   0BFD 3E 01              3214 	ld	a,#0x01
   0BFF 12                 3215 	ld	(de),a
                           3216 ; genPlus
                           3217 ; genPlusIncr
   0C00 11 00 02           3218 	ld	de,#_playfield + 0 + 320
                           3219 ; genAssign (pointer)
   0C03 3E 01              3220 	ld	a,#0x01
   0C05 12                 3221 	ld	(de),a
                           3222 ; genPlus
                           3223 ; genPlusIncr
   0C06 11 01 02           3224 	ld	de,#_playfield + 0 + 321
                           3225 ; genAssign (pointer)
   0C09 3E 10              3226 	ld	a,#0x10
   0C0B 12                 3227 	ld	(de),a
                           3228 ; genPlus
                           3229 ; genPlusIncr
   0C0C 11 02 02           3230 	ld	de,#_playfield + 0 + 322
                           3231 ; genAssign (pointer)
   0C0F 3E 10              3232 	ld	a,#0x10
   0C11 12                 3233 	ld	(de),a
                           3234 ; genPlus
                           3235 ; genPlusIncr
   0C12 11 03 02           3236 	ld	de,#_playfield + 0 + 323
                           3237 ; genAssign (pointer)
   0C15 3E 10              3238 	ld	a,#0x10
   0C17 12                 3239 	ld	(de),a
                           3240 ; genPlus
                           3241 ; genPlusIncr
   0C18 11 04 02           3242 	ld	de,#_playfield + 0 + 324
                           3243 ; genAssign (pointer)
   0C1B 3E 10              3244 	ld	a,#0x10
   0C1D 12                 3245 	ld	(de),a
                           3246 ; genPlus
                           3247 ; genPlusIncr
   0C1E 11 05 02           3248 	ld	de,#_playfield + 0 + 325
                           3249 ; genAssign (pointer)
   0C21 3E 10              3250 	ld	a,#0x10
   0C23 12                 3251 	ld	(de),a
                           3252 ; genPlus
                           3253 ; genPlusIncr
   0C24 11 06 02           3254 	ld	de,#_playfield + 0 + 326
                           3255 ; genAssign (pointer)
   0C27 3E 10              3256 	ld	a,#0x10
   0C29 12                 3257 	ld	(de),a
                           3258 ; genPlus
                           3259 ; genPlusIncr
   0C2A 11 07 02           3260 	ld	de,#_playfield + 0 + 327
                           3261 ; genAssign (pointer)
   0C2D 3E 10              3262 	ld	a,#0x10
   0C2F 12                 3263 	ld	(de),a
                           3264 ; genPlus
                           3265 ; genPlusIncr
   0C30 11 08 02           3266 	ld	de,#_playfield + 0 + 328
                           3267 ; genAssign (pointer)
   0C33 3E 10              3268 	ld	a,#0x10
   0C35 12                 3269 	ld	(de),a
                           3270 ; genPlus
                           3271 ; genPlusIncr
   0C36 11 09 02           3272 	ld	de,#_playfield + 0 + 329
                           3273 ; genAssign (pointer)
   0C39 3E 10              3274 	ld	a,#0x10
   0C3B 12                 3275 	ld	(de),a
                           3276 ; genPlus
                           3277 ; genPlusIncr
   0C3C 11 0A 02           3278 	ld	de,#_playfield + 0 + 330
                           3279 ; genAssign (pointer)
   0C3F 3E 10              3280 	ld	a,#0x10
   0C41 12                 3281 	ld	(de),a
                           3282 ; genPlus
                           3283 ; genPlusIncr
   0C42 11 0B 02           3284 	ld	de,#_playfield + 0 + 331
                           3285 ; genAssign (pointer)
   0C45 3E 10              3286 	ld	a,#0x10
   0C47 12                 3287 	ld	(de),a
                           3288 ; genPlus
                           3289 ; genPlusIncr
   0C48 11 0C 02           3290 	ld	de,#_playfield + 0 + 332
                           3291 ; genAssign (pointer)
   0C4B 3E 00              3292 	ld	a,#0x00
   0C4D 12                 3293 	ld	(de),a
                           3294 ; genPlus
                           3295 ; genPlusIncr
   0C4E 11 0D 02           3296 	ld	de,#_playfield + 0 + 333
                           3297 ; genAssign (pointer)
   0C51 3E 00              3298 	ld	a,#0x00
   0C53 12                 3299 	ld	(de),a
                           3300 ; genPlus
                           3301 ; genPlusIncr
   0C54 11 0E 02           3302 	ld	de,#_playfield + 0 + 334
                           3303 ; genAssign (pointer)
   0C57 3E 00              3304 	ld	a,#0x00
   0C59 12                 3305 	ld	(de),a
                           3306 ; genPlus
                           3307 ; genPlusIncr
   0C5A 11 0F 02           3308 	ld	de,#_playfield + 0 + 335
                           3309 ; genAssign (pointer)
   0C5D 3E 00              3310 	ld	a,#0x00
   0C5F 12                 3311 	ld	(de),a
                           3312 ; genPlus
                           3313 ; genPlusIncr
   0C60 11 10 02           3314 	ld	de,#_playfield + 0 + 336
                           3315 ; genAssign (pointer)
   0C63 3E 00              3316 	ld	a,#0x00
   0C65 12                 3317 	ld	(de),a
                           3318 ; genPlus
                           3319 ; genPlusIncr
   0C66 11 11 02           3320 	ld	de,#_playfield + 0 + 337
                           3321 ; genAssign (pointer)
   0C69 3E 00              3322 	ld	a,#0x00
   0C6B 12                 3323 	ld	(de),a
                           3324 ; genPlus
                           3325 ; genPlusIncr
   0C6C 11 12 02           3326 	ld	de,#_playfield + 0 + 338
                           3327 ; genAssign (pointer)
   0C6F 3E 00              3328 	ld	a,#0x00
   0C71 12                 3329 	ld	(de),a
                           3330 ; genPlus
                           3331 ; genPlusIncr
   0C72 11 13 02           3332 	ld	de,#_playfield + 0 + 339
                           3333 ; genAssign (pointer)
   0C75 3E 01              3334 	ld	a,#0x01
   0C77 12                 3335 	ld	(de),a
                           3336 ; genPlus
                           3337 ; genPlusIncr
   0C78 11 14 02           3338 	ld	de,#_playfield + 0 + 340
                           3339 ; genAssign (pointer)
   0C7B 3E 01              3340 	ld	a,#0x01
   0C7D 12                 3341 	ld	(de),a
                           3342 ; genPlus
                           3343 ; genPlusIncr
   0C7E 11 15 02           3344 	ld	de,#_playfield + 0 + 341
                           3345 ; genAssign (pointer)
   0C81 3E 01              3346 	ld	a,#0x01
   0C83 12                 3347 	ld	(de),a
                           3348 ; genPlus
                           3349 ; genPlusIncr
   0C84 11 16 02           3350 	ld	de,#_playfield + 0 + 342
                           3351 ; genAssign (pointer)
   0C87 3E 01              3352 	ld	a,#0x01
   0C89 12                 3353 	ld	(de),a
                           3354 ; genPlus
                           3355 ; genPlusIncr
   0C8A 11 17 02           3356 	ld	de,#_playfield + 0 + 343
                           3357 ; genAssign (pointer)
   0C8D 3E 01              3358 	ld	a,#0x01
   0C8F 12                 3359 	ld	(de),a
                           3360 ; genPlus
                           3361 ; genPlusIncr
   0C90 11 18 02           3362 	ld	de,#_playfield + 0 + 344
                           3363 ; genAssign (pointer)
   0C93 3E 01              3364 	ld	a,#0x01
   0C95 12                 3365 	ld	(de),a
                           3366 ; genPlus
                           3367 ; genPlusIncr
   0C96 11 19 02           3368 	ld	de,#_playfield + 0 + 345
                           3369 ; genAssign (pointer)
   0C99 3E 01              3370 	ld	a,#0x01
   0C9B 12                 3371 	ld	(de),a
                           3372 ; genPlus
                           3373 ; genPlusIncr
   0C9C 11 1A 02           3374 	ld	de,#_playfield + 0 + 346
                           3375 ; genAssign (pointer)
   0C9F 3E 01              3376 	ld	a,#0x01
   0CA1 12                 3377 	ld	(de),a
                           3378 ; genPlus
                           3379 ; genPlusIncr
   0CA2 11 1B 02           3380 	ld	de,#_playfield + 0 + 347
                           3381 ; genAssign (pointer)
   0CA5 3E 01              3382 	ld	a,#0x01
   0CA7 12                 3383 	ld	(de),a
                           3384 ; genPlus
                           3385 ; genPlusIncr
   0CA8 11 1C 02           3386 	ld	de,#_playfield + 0 + 348
                           3387 ; genAssign (pointer)
   0CAB 3E 01              3388 	ld	a,#0x01
   0CAD 12                 3389 	ld	(de),a
                           3390 ; genPlus
                           3391 ; genPlusIncr
   0CAE 11 1D 02           3392 	ld	de,#_playfield + 0 + 349
                           3393 ; genAssign (pointer)
   0CB1 3E 01              3394 	ld	a,#0x01
   0CB3 12                 3395 	ld	(de),a
                           3396 ; genPlus
                           3397 ; genPlusIncr
   0CB4 11 1E 02           3398 	ld	de,#_playfield + 0 + 350
                           3399 ; genAssign (pointer)
   0CB7 3E 01              3400 	ld	a,#0x01
   0CB9 12                 3401 	ld	(de),a
                           3402 ; genPlus
                           3403 ; genPlusIncr
   0CBA 11 1F 02           3404 	ld	de,#_playfield + 0 + 351
                           3405 ; genAssign (pointer)
   0CBD 3E 01              3406 	ld	a,#0x01
   0CBF 12                 3407 	ld	(de),a
                           3408 ; genPlus
                           3409 ; genPlusIncr
   0CC0 11 20 02           3410 	ld	de,#_playfield + 0 + 352
                           3411 ; genAssign (pointer)
   0CC3 3E 01              3412 	ld	a,#0x01
   0CC5 12                 3413 	ld	(de),a
                           3414 ; genPlus
                           3415 ; genPlusIncr
   0CC6 11 21 02           3416 	ld	de,#_playfield + 0 + 353
                           3417 ; genAssign (pointer)
   0CC9 3E 01              3418 	ld	a,#0x01
   0CCB 12                 3419 	ld	(de),a
                           3420 ; genPlus
                           3421 ; genPlusIncr
   0CCC 11 22 02           3422 	ld	de,#_playfield + 0 + 354
                           3423 ; genAssign (pointer)
   0CCF 3E 01              3424 	ld	a,#0x01
   0CD1 12                 3425 	ld	(de),a
                           3426 ; genPlus
                           3427 ; genPlusIncr
   0CD2 11 23 02           3428 	ld	de,#_playfield + 0 + 355
                           3429 ; genAssign (pointer)
   0CD5 3E 01              3430 	ld	a,#0x01
   0CD7 12                 3431 	ld	(de),a
                           3432 ; genPlus
                           3433 ; genPlusIncr
   0CD8 11 24 02           3434 	ld	de,#_playfield + 0 + 356
                           3435 ; genAssign (pointer)
   0CDB 3E 01              3436 	ld	a,#0x01
   0CDD 12                 3437 	ld	(de),a
                           3438 ; genPlus
                           3439 ; genPlusIncr
   0CDE 11 25 02           3440 	ld	de,#_playfield + 0 + 357
                           3441 ; genAssign (pointer)
   0CE1 3E 01              3442 	ld	a,#0x01
   0CE3 12                 3443 	ld	(de),a
                           3444 ; genPlus
                           3445 ; genPlusIncr
   0CE4 11 26 02           3446 	ld	de,#_playfield + 0 + 358
                           3447 ; genAssign (pointer)
   0CE7 3E 01              3448 	ld	a,#0x01
   0CE9 12                 3449 	ld	(de),a
                           3450 ; genPlus
                           3451 ; genPlusIncr
   0CEA 11 27 02           3452 	ld	de,#_playfield + 0 + 359
                           3453 ; genAssign (pointer)
   0CED 3E 01              3454 	ld	a,#0x01
   0CEF 12                 3455 	ld	(de),a
                           3456 ;	main.c 121
                           3457 ; genAssign
                           3458 ; AOP_HL for _spritesize
   0CF0 21 38 02           3459 	ld	hl,#_spritesize + 0
   0CF3 36 08              3460 	ld	(hl),#0x08
                           3461 ;	main.c 121
                           3462 ; genAssign
                           3463 ; AOP_HL for _lives
   0CF5 21 39 02           3464 	ld	hl,#_lives + 0
   0CF8 36 04              3465 	ld	(hl),#0x04
                           3466 ;--------------------------------------------------------
                           3467 ; Home
                           3468 ;--------------------------------------------------------
                           3469 	.area _HOME
                           3470 	.area _CODE
                           3471 ;--------------------------------------------------------
                           3472 ; code
                           3473 ;--------------------------------------------------------
                           3474 	.area _CODE
                           3475 ;	main.c 13
                           3476 ; genLabel
                           3477 ; genFunction
                           3478 ;	---------------------------------
                           3479 ; Function performantdelay
                           3480 ; ---------------------------------
   0000                    3481 ___performantdelay_start:
   0000                    3482 _performantdelay:
   0000 C5                 3483 	push	bc
                           3484 	
                           3485 ;	main.c 15
                           3486 ; genAssign
   0001 0E 00              3487 	ld	c,#0x00
                           3488 ; genLabel
   0003                    3489 00101$:
                           3490 ; genCmpLt
                           3491 ; AOP_STK for 
   0003 AF                 3492 	xor	a,a
   0004 79                 3493 	ld	a,c
   0005 F8 04              3494 	lda	hl,4(sp)
   0007 9E                 3495 	sbc	a,(hl) ; 2
   0008 D2 12 00           3496 	jp	nc,00105$
                           3497 ;	main.c 16
                           3498 ; genCall
   000B CD 00 00           3499 	call	_wait_vbl_done
                           3500 ;	main.c 15
                           3501 ; genPlus
                           3502 ; genPlusIncr
   000E 0C                 3503 	inc	c
                           3504 ; genGoto
   000F C3 03 00           3505 	jp	00101$
                           3506 ; genLabel
   0012                    3507 00105$:
                           3508 ; genEndFunction
                           3509 	
   0012 C1                 3510 	pop	bc
   0013 C9                 3511 	ret
   0014                    3512 ___performantdelay_end:
                           3513 ;	main.c 20
                           3514 ; genLabel
                           3515 ; genFunction
                           3516 ;	---------------------------------
                           3517 ; Function checkcollisions
                           3518 ; ---------------------------------
   0014                    3519 ___checkcollisions_start:
   0014                    3520 _checkcollisions:
   0014 C5                 3521 	push	bc
   0015 E8 F7              3522 	lda	sp,-9(sp)
                           3523 ;	main.c 21
                           3524 ; genAssign
                           3525 ; AOP_STK for 
                           3526 ; AOP_STK for _checkcollisions_sloc0_1_0
   0017 F8 0D              3527 	lda	hl,13(sp)
   0019 2A                 3528 	ld	a,(hl+)
   001A 5E                 3529 	ld	e,(hl)
   001B F8 07              3530 	lda	hl,7(sp)
   001D 22                 3531 	ld	(hl+),a
   001E 73                 3532 	ld	(hl),e
                           3533 ; genPlus
                           3534 ; AOP_STK for _checkcollisions_sloc0_1_0
                           3535 ; genPlusIncr
                           3536 ;	genPlusIncr failed
   001F 2B                 3537 	dec	hl
   0020 5E                 3538 	ld	e,(hl)
   0021 23                 3539 	inc	hl
   0022 56                 3540 	ld	d,(hl)
   0023 21 04 00           3541 	ld	hl,#0x0004
   0026 19                 3542 	add	hl,de
   0027 5D                 3543 	ld	e,l
   0028 54                 3544 	ld	d,h
                           3545 ; genPointerGet
                           3546 ; AOP_STK for _checkcollisions_sloc1_1_0
   0029 1A                 3547 	ld	a,(de)
   002A F8 06              3548 	lda	hl,6(sp)
   002C 77                 3549 	ld	(hl),a
                           3550 ; genAssign
                           3551 ; AOP_STK for 
                           3552 ; AOP_STK for _checkcollisions_sloc2_1_0
   002D F8 0F              3553 	lda	hl,15(sp)
   002F 2A                 3554 	ld	a,(hl+)
   0030 5E                 3555 	ld	e,(hl)
   0031 F8 04              3556 	lda	hl,4(sp)
   0033 22                 3557 	ld	(hl+),a
   0034 73                 3558 	ld	(hl),e
                           3559 ; genPlus
                           3560 ; AOP_STK for _checkcollisions_sloc2_1_0
                           3561 ; genPlusIncr
                           3562 ;	genPlusIncr failed
   0035 2B                 3563 	dec	hl
   0036 5E                 3564 	ld	e,(hl)
   0037 23                 3565 	inc	hl
   0038 56                 3566 	ld	d,(hl)
   0039 21 04 00           3567 	ld	hl,#0x0004
   003C 19                 3568 	add	hl,de
   003D 5D                 3569 	ld	e,l
   003E 54                 3570 	ld	d,h
                           3571 ; genPointerGet
                           3572 ; AOP_STK for _checkcollisions_sloc5_1_0
   003F 1A                 3573 	ld	a,(de)
   0040 F8 01              3574 	lda	hl,1(sp)
   0042 77                 3575 	ld	(hl),a
                           3576 ; genCmpLt
                           3577 ; AOP_STK for _checkcollisions_sloc1_1_0
                           3578 ; AOP_STK for _checkcollisions_sloc5_1_0
   0043 AF                 3579 	xor	a,a
   0044 F8 06              3580 	lda	hl,6(sp)
   0046 7E                 3581 	ld	a,(hl)
   0047 F8 01              3582 	lda	hl,1(sp)
   0049 9E                 3583 	sbc	a,(hl) ; 2
   004A 3E 00              3584 	ld	a,#0x00
   004C 17                 3585 	rla
   004D 47                 3586 	ld	b,a
                           3587 ; genNot
                           3588 ; AOP_STK for _checkcollisions_sloc3_1_0
   004E AF                 3589 	xor	a,a
   004F B0                 3590 	or	a,b
   0050 D6 01              3591 	sub	a,#0x01
   0052 3E 00              3592 	ld	a,#0x00
   0054 17                 3593 	rla
   0055 23                 3594 	inc	hl
   0056 23                 3595 	inc	hl
                           3596 ; genPlus
                           3597 ; AOP_STK for _checkcollisions_sloc2_1_0
                           3598 ; genPlusIncr
                           3599 ;	genPlusIncr failed
   0057 22                 3600 	ld	(hl+),a
   0058 5E                 3601 	ld	e,(hl)
   0059 23                 3602 	inc	hl
   005A 56                 3603 	ld	d,(hl)
   005B 21 06 00           3604 	ld	hl,#0x0006
   005E 19                 3605 	add	hl,de
   005F 5D                 3606 	ld	e,l
   0060 54                 3607 	ld	d,h
                           3608 ; genPointerGet
   0061 1A                 3609 	ld	a,(de)
                           3610 ; genPlus
                           3611 ; AOP_STK for _checkcollisions_sloc5_1_0
                           3612 ;	genPlusIncr failed
   0062 F8 01              3613 	lda	hl,1(sp)
   0064 86                 3614 	add	a,(hl)
   0065 47                 3615 	ld	b,a
                           3616 ; genCmpGt
                           3617 ; AOP_STK for _checkcollisions_sloc1_1_0
   0066 AF                 3618 	xor	a,a
   0067 78                 3619 	ld	a,b
   0068 F8 06              3620 	lda	hl,6(sp)
   006A 9E                 3621 	sbc	a,(hl) ; 2
   006B 3E 00              3622 	ld	a,#0x00
   006D 17                 3623 	rla
   006E 47                 3624 	ld	b,a
                           3625 ; genNot
   006F AF                 3626 	xor	a,a
   0070 B0                 3627 	or	a,b
   0071 D6 01              3628 	sub	a,#0x01
   0073 3E 00              3629 	ld	a,#0x00
   0075 17                 3630 	rla
   0076 47                 3631 	ld	b,a
                           3632 ; genAndOp
                           3633 ; AOP_STK for _checkcollisions_sloc3_1_0
   0077 AF                 3634 	xor	a,a
   0078 F8 03              3635 	lda	hl,3(sp)
   007A B6                 3636 	or	a,(hl)
   007B 28 02              3637 	jr	z,00103$
   007D AF                 3638 	xor	a,a
   007E B0                 3639 	or	a,b
   007F                    3640 00103$:
   007F 28 02              3641 	jr	z,00104$
   0081 3E 01              3642 	ld	a,#0x01
   0083                    3643 00104$:
   0083 F8 03              3644 	lda	hl,3(sp)
   0085 77                 3645 	ld	(hl),a
                           3646 ; genPlus
                           3647 ; AOP_STK for _checkcollisions_sloc0_1_0
                           3648 ; genPlusIncr
                           3649 ;	genPlusIncr failed
   0086 F8 07              3650 	lda	hl,7(sp)
   0088 5E                 3651 	ld	e,(hl)
   0089 23                 3652 	inc	hl
   008A 56                 3653 	ld	d,(hl)
   008B 21 05 00           3654 	ld	hl,#0x0005
   008E 19                 3655 	add	hl,de
   008F 5D                 3656 	ld	e,l
   0090 54                 3657 	ld	d,h
                           3658 ; genPointerGet
                           3659 ; AOP_STK for _checkcollisions_sloc4_1_0
   0091 1A                 3660 	ld	a,(de)
   0092 F8 02              3661 	lda	hl,2(sp)
                           3662 ; genPlus
                           3663 ; AOP_STK for _checkcollisions_sloc2_1_0
                           3664 ; genPlusIncr
                           3665 ;	genPlusIncr failed
   0094 22                 3666 	ld	(hl+),a
   0095 23                 3667 	inc	hl
   0096 5E                 3668 	ld	e,(hl)
   0097 23                 3669 	inc	hl
   0098 56                 3670 	ld	d,(hl)
   0099 21 05 00           3671 	ld	hl,#0x0005
   009C 19                 3672 	add	hl,de
   009D 5D                 3673 	ld	e,l
   009E 54                 3674 	ld	d,h
                           3675 ; genPointerGet
   009F 1A                 3676 	ld	a,(de)
   00A0 47                 3677 	ld	b,a
                           3678 ; genCmpLt
                           3679 ; AOP_STK for _checkcollisions_sloc4_1_0
   00A1 AF                 3680 	xor	a,a
   00A2 F8 02              3681 	lda	hl,2(sp)
   00A4 7E                 3682 	ld	a,(hl)
   00A5 98                 3683 	sbc	a,b ; 2
   00A6 3E 00              3684 	ld	a,#0x00
   00A8 17                 3685 	rla
   00A9 4F                 3686 	ld	c,a
                           3687 ; genNot
                           3688 ; AOP_STK for _checkcollisions_sloc6_1_0
   00AA AF                 3689 	xor	a,a
   00AB B1                 3690 	or	a,c
   00AC D6 01              3691 	sub	a,#0x01
   00AE 3E 00              3692 	ld	a,#0x00
   00B0 17                 3693 	rla
   00B1 2B                 3694 	dec	hl
   00B2 2B                 3695 	dec	hl
   00B3 77                 3696 	ld	(hl),a
                           3697 ; genPlus
                           3698 ; AOP_STK for _checkcollisions_sloc2_1_0
                           3699 ; genPlusIncr
                           3700 ;	genPlusIncr failed
   00B4 F8 04              3701 	lda	hl,4(sp)
   00B6 5E                 3702 	ld	e,(hl)
   00B7 23                 3703 	inc	hl
   00B8 56                 3704 	ld	d,(hl)
   00B9 21 07 00           3705 	ld	hl,#0x0007
   00BC 19                 3706 	add	hl,de
   00BD 5D                 3707 	ld	e,l
   00BE 54                 3708 	ld	d,h
                           3709 ; genPointerGet
   00BF 1A                 3710 	ld	a,(de)
                           3711 ; genPlus
                           3712 ;	genPlusIncr failed
   00C0 80                 3713 	add	a,b
   00C1 4F                 3714 	ld	c,a
                           3715 ; genCmpGt
                           3716 ; AOP_STK for _checkcollisions_sloc4_1_0
   00C2 AF                 3717 	xor	a,a
   00C3 79                 3718 	ld	a,c
   00C4 F8 02              3719 	lda	hl,2(sp)
   00C6 9E                 3720 	sbc	a,(hl) ; 2
   00C7 3E 00              3721 	ld	a,#0x00
   00C9 17                 3722 	rla
   00CA 4F                 3723 	ld	c,a
                           3724 ; genNot
   00CB AF                 3725 	xor	a,a
   00CC B1                 3726 	or	a,c
   00CD D6 01              3727 	sub	a,#0x01
   00CF 3E 00              3728 	ld	a,#0x00
   00D1 17                 3729 	rla
   00D2 4F                 3730 	ld	c,a
                           3731 ; genAndOp
                           3732 ; AOP_STK for _checkcollisions_sloc6_1_0
   00D3 AF                 3733 	xor	a,a
   00D4 2B                 3734 	dec	hl
   00D5 2B                 3735 	dec	hl
   00D6 B6                 3736 	or	a,(hl)
   00D7 28 02              3737 	jr	z,00105$
   00D9 AF                 3738 	xor	a,a
   00DA B1                 3739 	or	a,c
   00DB                    3740 00105$:
   00DB 28 02              3741 	jr	z,00106$
   00DD 3E 01              3742 	ld	a,#0x01
   00DF                    3743 00106$:
   00DF 4F                 3744 	ld	c,a
                           3745 ; genAndOp
                           3746 ; AOP_STK for _checkcollisions_sloc3_1_0
                           3747 ; AOP_STK for _checkcollisions_sloc6_1_0
   00E0 AF                 3748 	xor	a,a
   00E1 F8 03              3749 	lda	hl,3(sp)
   00E3 B6                 3750 	or	a,(hl)
   00E4 28 02              3751 	jr	z,00107$
   00E6 AF                 3752 	xor	a,a
   00E7 B1                 3753 	or	a,c
   00E8                    3754 00107$:
   00E8 28 02              3755 	jr	z,00108$
   00EA 3E 01              3756 	ld	a,#0x01
   00EC                    3757 00108$:
   00EC F8 00              3758 	lda	hl,0(sp)
   00EE 77                 3759 	ld	(hl),a
                           3760 ; genCmpLt
                           3761 ; AOP_STK for _checkcollisions_sloc5_1_0
                           3762 ; AOP_STK for _checkcollisions_sloc1_1_0
   00EF AF                 3763 	xor	a,a
   00F0 23                 3764 	inc	hl
   00F1 7E                 3765 	ld	a,(hl)
   00F2 F8 06              3766 	lda	hl,6(sp)
   00F4 9E                 3767 	sbc	a,(hl) ; 2
   00F5 3E 00              3768 	ld	a,#0x00
   00F7 17                 3769 	rla
   00F8 4F                 3770 	ld	c,a
                           3771 ; genNot
                           3772 ; AOP_STK for _checkcollisions_sloc3_1_0
   00F9 AF                 3773 	xor	a,a
   00FA B1                 3774 	or	a,c
   00FB D6 01              3775 	sub	a,#0x01
   00FD 3E 00              3776 	ld	a,#0x00
   00FF 17                 3777 	rla
   0100 F8 03              3778 	lda	hl,3(sp)
   0102 77                 3779 	ld	(hl),a
                           3780 ; genPlus
                           3781 ; AOP_STK for _checkcollisions_sloc0_1_0
                           3782 ; genPlusIncr
                           3783 ;	genPlusIncr failed
   0103 F8 07              3784 	lda	hl,7(sp)
   0105 5E                 3785 	ld	e,(hl)
   0106 23                 3786 	inc	hl
   0107 56                 3787 	ld	d,(hl)
   0108 21 06 00           3788 	ld	hl,#0x0006
   010B 19                 3789 	add	hl,de
   010C 5D                 3790 	ld	e,l
   010D 54                 3791 	ld	d,h
                           3792 ; genPointerGet
   010E 1A                 3793 	ld	a,(de)
                           3794 ; genPlus
                           3795 ; AOP_STK for _checkcollisions_sloc1_1_0
                           3796 ;	genPlusIncr failed
   010F F8 06              3797 	lda	hl,6(sp)
   0111 86                 3798 	add	a,(hl)
   0112 4F                 3799 	ld	c,a
                           3800 ; genCmpGt
                           3801 ; AOP_STK for _checkcollisions_sloc5_1_0
   0113 AF                 3802 	xor	a,a
   0114 79                 3803 	ld	a,c
   0115 F8 01              3804 	lda	hl,1(sp)
   0117 9E                 3805 	sbc	a,(hl) ; 2
   0118 3E 00              3806 	ld	a,#0x00
   011A 17                 3807 	rla
   011B 4F                 3808 	ld	c,a
                           3809 ; genNot
   011C AF                 3810 	xor	a,a
   011D B1                 3811 	or	a,c
   011E D6 01              3812 	sub	a,#0x01
   0120 3E 00              3813 	ld	a,#0x00
   0122 17                 3814 	rla
   0123 4F                 3815 	ld	c,a
                           3816 ; genAndOp
                           3817 ; AOP_STK for _checkcollisions_sloc3_1_0
                           3818 ; AOP_STK for _checkcollisions_sloc5_1_0
   0124 AF                 3819 	xor	a,a
   0125 23                 3820 	inc	hl
   0126 23                 3821 	inc	hl
   0127 B6                 3822 	or	a,(hl)
   0128 28 02              3823 	jr	z,00109$
   012A AF                 3824 	xor	a,a
   012B B1                 3825 	or	a,c
   012C                    3826 00109$:
   012C 28 02              3827 	jr	z,00110$
   012E 3E 01              3828 	ld	a,#0x01
   0130                    3829 00110$:
   0130 F8 01              3830 	lda	hl,1(sp)
   0132 77                 3831 	ld	(hl),a
                           3832 ; genCmpLt
                           3833 ; AOP_STK for _checkcollisions_sloc4_1_0
   0133 AF                 3834 	xor	a,a
   0134 78                 3835 	ld	a,b
   0135 23                 3836 	inc	hl
   0136 9E                 3837 	sbc	a,(hl) ; 2
   0137 3E 00              3838 	ld	a,#0x00
   0139 17                 3839 	rla
   013A 4F                 3840 	ld	c,a
                           3841 ; genNot
                           3842 ; AOP_STK for _checkcollisions_sloc3_1_0
   013B AF                 3843 	xor	a,a
   013C B1                 3844 	or	a,c
   013D D6 01              3845 	sub	a,#0x01
   013F 3E 00              3846 	ld	a,#0x00
   0141 17                 3847 	rla
   0142 23                 3848 	inc	hl
   0143 77                 3849 	ld	(hl),a
                           3850 ; genPlus
                           3851 ; AOP_STK for _checkcollisions_sloc0_1_0
                           3852 ; genPlusIncr
                           3853 ;	genPlusIncr failed
   0144 F8 07              3854 	lda	hl,7(sp)
   0146 5E                 3855 	ld	e,(hl)
   0147 23                 3856 	inc	hl
   0148 56                 3857 	ld	d,(hl)
   0149 21 07 00           3858 	ld	hl,#0x0007
   014C 19                 3859 	add	hl,de
   014D 5D                 3860 	ld	e,l
   014E 54                 3861 	ld	d,h
                           3862 ; genPointerGet
   014F 1A                 3863 	ld	a,(de)
                           3864 ; genPlus
                           3865 ; AOP_STK for _checkcollisions_sloc4_1_0
                           3866 ;	genPlusIncr failed
   0150 F8 02              3867 	lda	hl,2(sp)
   0152 86                 3868 	add	a,(hl)
   0153 4F                 3869 	ld	c,a
                           3870 ; genCmpGt
   0154 AF                 3871 	xor	a,a
   0155 79                 3872 	ld	a,c
   0156 98                 3873 	sbc	a,b ; 2
   0157 3E 00              3874 	ld	a,#0x00
   0159 17                 3875 	rla
   015A 47                 3876 	ld	b,a
                           3877 ; genNot
   015B AF                 3878 	xor	a,a
   015C B0                 3879 	or	a,b
   015D D6 01              3880 	sub	a,#0x01
   015F 3E 00              3881 	ld	a,#0x00
   0161 17                 3882 	rla
   0162 47                 3883 	ld	b,a
                           3884 ; genAndOp
                           3885 ; AOP_STK for _checkcollisions_sloc3_1_0
   0163 AF                 3886 	xor	a,a
   0164 23                 3887 	inc	hl
   0165 B6                 3888 	or	a,(hl)
   0166 28 02              3889 	jr	z,00111$
   0168 AF                 3890 	xor	a,a
   0169 B0                 3891 	or	a,b
   016A                    3892 00111$:
   016A 28 02              3893 	jr	z,00112$
   016C 3E 01              3894 	ld	a,#0x01
   016E                    3895 00112$:
   016E 47                 3896 	ld	b,a
                           3897 ; genAndOp
                           3898 ; AOP_STK for _checkcollisions_sloc5_1_0
   016F AF                 3899 	xor	a,a
   0170 F8 01              3900 	lda	hl,1(sp)
   0172 B6                 3901 	or	a,(hl)
   0173 28 02              3902 	jr	z,00113$
   0175 AF                 3903 	xor	a,a
   0176 B0                 3904 	or	a,b
   0177                    3905 00113$:
   0177 28 02              3906 	jr	z,00114$
   0179 3E 01              3907 	ld	a,#0x01
   017B                    3908 00114$:
   017B 47                 3909 	ld	b,a
                           3910 ; genOrOp
                           3911 ; AOP_STK for _checkcollisions_sloc6_1_0
   017C AF                 3912 	xor	a,a
   017D F8 00              3913 	lda	hl,0(sp)
   017F B6                 3914 	or	a,(hl)
   0180 20 02              3915 	jr	nz,00115$
   0182 AF                 3916 	xor	a,a
   0183 B0                 3917 	or	a,b
   0184                    3918 00115$:
   0184 28 02              3919 	jr	z,00116$
   0186 3E 01              3920 	ld	a,#0x01
   0188                    3921 00116$:
   0188 47                 3922 	ld	b,a
                           3923 ; genRet
   0189 58                 3924 	ld	e,b
                           3925 ; genLabel
   018A                    3926 00101$:
                           3927 ; genEndFunction
   018A E8 09              3928 	lda	sp,9(sp)
   018C C1                 3929 	pop	bc
   018D C9                 3930 	ret
   018E                    3931 ___checkcollisions_end:
                           3932 ;	main.c 24
                           3933 ; genLabel
                           3934 ; genFunction
                           3935 ;	---------------------------------
                           3936 ; Function movegamecharacter
                           3937 ; ---------------------------------
   018E                    3938 ___movegamecharacter_start:
   018E                    3939 _movegamecharacter:
   018E C5                 3940 	push	bc
   018F E8 FD              3941 	lda	sp,-3(sp)
                           3942 ;	main.c 25
                           3943 ; genAssign
                           3944 ; AOP_STK for 
                           3945 ; AOP_STK for _movegamecharacter_sloc1_1_0
   0191 F8 07              3946 	lda	hl,7(sp)
   0193 2A                 3947 	ld	a,(hl+)
   0194 5E                 3948 	ld	e,(hl)
   0195 F8 00              3949 	lda	hl,0(sp)
   0197 22                 3950 	ld	(hl+),a
   0198 73                 3951 	ld	(hl),e
                           3952 ; genPointerGet
                           3953 ; AOP_STK for _movegamecharacter_sloc1_1_0
                           3954 ; AOP_STK for _movegamecharacter_sloc0_1_0
   0199 2B                 3955 	dec	hl
   019A 5E                 3956 	ld	e,(hl)
   019B 23                 3957 	inc	hl
   019C 56                 3958 	ld	d,(hl)
   019D 1A                 3959 	ld	a,(de)
   019E 23                 3960 	inc	hl
   019F 77                 3961 	ld	(hl),a
                           3962 ; genIpush
                           3963 ; AOP_STK for 
   01A0 F8 0A              3964 	lda	hl,10(sp)
   01A2 7E                 3965 	ld	a,(hl)
   01A3 F5                 3966 	push	af
   01A4 33                 3967 	inc	sp
                           3968 ; genIpush
                           3969 ; AOP_STK for 
   01A5 2B                 3970 	dec	hl
   01A6 7E                 3971 	ld	a,(hl)
   01A7 F5                 3972 	push	af
   01A8 33                 3973 	inc	sp
                           3974 ; genIpush
                           3975 ; AOP_STK for _movegamecharacter_sloc0_1_0
   01A9 F8 04              3976 	lda	hl,4(sp)
   01AB 7E                 3977 	ld	a,(hl)
   01AC F5                 3978 	push	af
   01AD 33                 3979 	inc	sp
                           3980 ; genCall
   01AE CD 00 00           3981 	call	_move_sprite
   01B1 E8 03              3982 	lda	sp,3(sp)
                           3983 ;	main.c 26
                           3984 ; genPlus
                           3985 ; AOP_STK for 
                           3986 ; AOP_HL for _spritesize
                           3987 ;	genPlusIncr failed
   01B3 F8 09              3988 	lda	hl,9(sp)
   01B5 7E                 3989 	ld	a,(hl)
   01B6 21 38 02           3990 	ld	hl,#_spritesize + 0
   01B9 86                 3991 	add	a,(hl)
   01BA 4F                 3992 	ld	c,a
                           3993 ; genPlus
                           3994 ; AOP_STK for _movegamecharacter_sloc1_1_0
                           3995 ; genPlusIncr
   01BB F8 00              3996 	lda	hl,0(sp)
   01BD 5E                 3997 	ld	e,(hl)
   01BE 23                 3998 	inc	hl
   01BF 56                 3999 	ld	d,(hl)
   01C0 13                 4000 	inc	de
                           4001 ; genPointerGet
   01C1 1A                 4002 	ld	a,(de)
   01C2 47                 4003 	ld	b,a
                           4004 ; genIpush
                           4005 ; AOP_STK for 
   01C3 F8 0A              4006 	lda	hl,10(sp)
   01C5 7E                 4007 	ld	a,(hl)
   01C6 F5                 4008 	push	af
   01C7 33                 4009 	inc	sp
                           4010 ; genIpush
   01C8 79                 4011 	ld	a,c
   01C9 F5                 4012 	push	af
   01CA 33                 4013 	inc	sp
                           4014 ; genIpush
   01CB 78                 4015 	ld	a,b
   01CC F5                 4016 	push	af
   01CD 33                 4017 	inc	sp
                           4018 ; genCall
   01CE CD 00 00           4019 	call	_move_sprite
   01D1 E8 03              4020 	lda	sp,3(sp)
                           4021 ;	main.c 27
                           4022 ; genPlus
                           4023 ; AOP_HL for _spritesize
                           4024 ; AOP_STK for 
                           4025 ; AOP_STK for _movegamecharacter_sloc0_1_0
                           4026 ;	genPlusIncr failed
   01D3 21 38 02           4027 	ld	hl,#_spritesize + 0
   01D6 7E                 4028 	ld	a,(hl)
   01D7 F8 0A              4029 	lda	hl,10(sp)
   01D9 86                 4030 	add	a,(hl)
   01DA F8 02              4031 	lda	hl,2(sp)
   01DC 77                 4032 	ld	(hl),a
                           4033 ; genPlus
                           4034 ; AOP_STK for _movegamecharacter_sloc1_1_0
                           4035 ; genPlusIncr
   01DD 2B                 4036 	dec	hl
   01DE 2B                 4037 	dec	hl
   01DF 5E                 4038 	ld	e,(hl)
   01E0 23                 4039 	inc	hl
   01E1 56                 4040 	ld	d,(hl)
   01E2 13                 4041 	inc	de
   01E3 13                 4042 	inc	de
                           4043 ; genPointerGet
   01E4 1A                 4044 	ld	a,(de)
   01E5 47                 4045 	ld	b,a
                           4046 ; genIpush
                           4047 ; AOP_STK for _movegamecharacter_sloc0_1_0
   01E6 23                 4048 	inc	hl
   01E7 7E                 4049 	ld	a,(hl)
   01E8 F5                 4050 	push	af
   01E9 33                 4051 	inc	sp
                           4052 ; genIpush
                           4053 ; AOP_STK for 
   01EA F8 0A              4054 	lda	hl,10(sp)
   01EC 7E                 4055 	ld	a,(hl)
   01ED F5                 4056 	push	af
   01EE 33                 4057 	inc	sp
                           4058 ; genIpush
   01EF 78                 4059 	ld	a,b
   01F0 F5                 4060 	push	af
   01F1 33                 4061 	inc	sp
                           4062 ; genCall
   01F2 CD 00 00           4063 	call	_move_sprite
   01F5 E8 03              4064 	lda	sp,3(sp)
                           4065 ;	main.c 28
                           4066 ; genPlus
                           4067 ; AOP_STK for _movegamecharacter_sloc1_1_0
                           4068 ; genPlusIncr
                           4069 ;	genPlusIncr failed
   01F7 F8 00              4070 	lda	hl,0(sp)
   01F9 5E                 4071 	ld	e,(hl)
   01FA 23                 4072 	inc	hl
   01FB 56                 4073 	ld	d,(hl)
   01FC 21 03 00           4074 	ld	hl,#0x0003
   01FF 19                 4075 	add	hl,de
   0200 5D                 4076 	ld	e,l
   0201 54                 4077 	ld	d,h
                           4078 ; genPointerGet
   0202 1A                 4079 	ld	a,(de)
   0203 47                 4080 	ld	b,a
                           4081 ; genIpush
                           4082 ; AOP_STK for _movegamecharacter_sloc0_1_0
   0204 F8 02              4083 	lda	hl,2(sp)
   0206 7E                 4084 	ld	a,(hl)
   0207 F5                 4085 	push	af
   0208 33                 4086 	inc	sp
                           4087 ; genIpush
   0209 79                 4088 	ld	a,c
   020A F5                 4089 	push	af
   020B 33                 4090 	inc	sp
                           4091 ; genIpush
   020C 78                 4092 	ld	a,b
   020D F5                 4093 	push	af
   020E 33                 4094 	inc	sp
                           4095 ; genCall
   020F CD 00 00           4096 	call	_move_sprite
   0212 E8 03              4097 	lda	sp,3(sp)
                           4098 ; genLabel
   0214                    4099 00101$:
                           4100 ; genEndFunction
   0214 E8 03              4101 	lda	sp,3(sp)
   0216 C1                 4102 	pop	bc
   0217 C9                 4103 	ret
   0218                    4104 ___movegamecharacter_end:
                           4105 ;	main.c 31
                           4106 ; genLabel
                           4107 ; genFunction
                           4108 ;	---------------------------------
                           4109 ; Function setupPickle
                           4110 ; ---------------------------------
   0218                    4111 ___setupPickle_start:
   0218                    4112 _setupPickle:
   0218 C5                 4113 	push	bc
   0219 E8 FD              4114 	lda	sp,-3(sp)
                           4115 ;	main.c 32
                           4116 ; genPlus
                           4117 ; AOP_STK for _setupPickle_sloc0_1_0
                           4118 ; genPlusIncr
                           4119 ;	genPlusIncr failed
   021B 11 30 02           4120 	ld	de,#_pickleChar + 0
   021E 21 04 00           4121 	ld	hl,#0x0004
   0221 19                 4122 	add	hl,de
   0222 7D                 4123 	ld	a,l
   0223 54                 4124 	ld	d,h
   0224 F8 01              4125 	lda	hl,1(sp)
   0226 22                 4126 	ld	(hl+),a
   0227 72                 4127 	ld	(hl),d
                           4128 ; genAssign (pointer)
                           4129 ; AOP_STK for _setupPickle_sloc0_1_0
   0228 2B                 4130 	dec	hl
   0229 5E                 4131 	ld	e,(hl)
   022A 23                 4132 	inc	hl
   022B 56                 4133 	ld	d,(hl)
   022C 3E 50              4134 	ld	a,#0x50
   022E 12                 4135 	ld	(de),a
                           4136 ;	main.c 33
                           4137 ; genPlus
                           4138 ; genPlusIncr
   022F 01 35 02           4139 	ld	bc,#_pickleChar + 0 + 5
                           4140 ; genAssign (pointer)
   0232 3E 82              4141 	ld	a,#0x82
   0234 02                 4142 	ld	(bc),a
                           4143 ;	main.c 34
                           4144 ; genPlus
                           4145 ; genPlusIncr
   0235 11 36 02           4146 	ld	de,#_pickleChar + 0 + 6
                           4147 ; genAssign (pointer)
   0238 3E 10              4148 	ld	a,#0x10
   023A 12                 4149 	ld	(de),a
                           4150 ;	main.c 35
                           4151 ; genPlus
                           4152 ; genPlusIncr
   023B 11 37 02           4153 	ld	de,#_pickleChar + 0 + 7
                           4154 ; genAssign (pointer)
   023E 3E 10              4155 	ld	a,#0x10
   0240 12                 4156 	ld	(de),a
                           4157 ;	main.c 37
                           4158 ; genIpush
   0241 3E 00              4159 	ld	a,#0x00
   0243 F5                 4160 	push	af
   0244 33                 4161 	inc	sp
                           4162 ; genIpush
   0245 3E 00              4163 	ld	a,#0x00
   0247 F5                 4164 	push	af
   0248 33                 4165 	inc	sp
                           4166 ; genCall
   0249 CD 00 00           4167 	call	_set_sprite_tile
   024C E8 02              4168 	lda	sp,2(sp)
                           4169 ;	main.c 38
                           4170 ; genAssign (pointer)
   024E 11 30 02           4171 	ld	de,#_pickleChar + 0
   0251 3E 00              4172 	ld	a,#0x00
   0253 12                 4173 	ld	(de),a
                           4174 ;	main.c 39
                           4175 ; genIpush
   0254 3E 01              4176 	ld	a,#0x01
   0256 F5                 4177 	push	af
   0257 33                 4178 	inc	sp
                           4179 ; genIpush
   0258 3E 01              4180 	ld	a,#0x01
   025A F5                 4181 	push	af
   025B 33                 4182 	inc	sp
                           4183 ; genCall
   025C CD 00 00           4184 	call	_set_sprite_tile
   025F E8 02              4185 	lda	sp,2(sp)
                           4186 ;	main.c 40
                           4187 ; genPlus
                           4188 ; genPlusIncr
   0261 11 31 02           4189 	ld	de,#_pickleChar + 0 + 1
                           4190 ; genAssign (pointer)
   0264 3E 01              4191 	ld	a,#0x01
   0266 12                 4192 	ld	(de),a
                           4193 ;	main.c 41
                           4194 ; genIpush
   0267 3E 02              4195 	ld	a,#0x02
   0269 F5                 4196 	push	af
   026A 33                 4197 	inc	sp
                           4198 ; genIpush
   026B 3E 02              4199 	ld	a,#0x02
   026D F5                 4200 	push	af
   026E 33                 4201 	inc	sp
                           4202 ; genCall
   026F CD 00 00           4203 	call	_set_sprite_tile
   0272 E8 02              4204 	lda	sp,2(sp)
                           4205 ;	main.c 42
                           4206 ; genPlus
                           4207 ; genPlusIncr
   0274 11 32 02           4208 	ld	de,#_pickleChar + 0 + 2
                           4209 ; genAssign (pointer)
   0277 3E 02              4210 	ld	a,#0x02
   0279 12                 4211 	ld	(de),a
                           4212 ;	main.c 43
                           4213 ; genIpush
   027A 3E 03              4214 	ld	a,#0x03
   027C F5                 4215 	push	af
   027D 33                 4216 	inc	sp
                           4217 ; genIpush
   027E 3E 03              4218 	ld	a,#0x03
   0280 F5                 4219 	push	af
   0281 33                 4220 	inc	sp
                           4221 ; genCall
   0282 CD 00 00           4222 	call	_set_sprite_tile
   0285 E8 02              4223 	lda	sp,2(sp)
                           4224 ;	main.c 44
                           4225 ; genPlus
                           4226 ; genPlusIncr
   0287 11 33 02           4227 	ld	de,#_pickleChar + 0 + 3
                           4228 ; genAssign (pointer)
   028A 3E 03              4229 	ld	a,#0x03
   028C 12                 4230 	ld	(de),a
                           4231 ;	main.c 46
                           4232 ; genPointerGet
                           4233 ; AOP_STK for _setupPickle_sloc1_1_0
   028D 0A                 4234 	ld	a,(bc)
   028E F8 00              4235 	lda	hl,0(sp)
                           4236 ; genPointerGet
                           4237 ; AOP_STK for _setupPickle_sloc0_1_0
   0290 22                 4238 	ld	(hl+),a
   0291 5E                 4239 	ld	e,(hl)
   0292 23                 4240 	inc	hl
   0293 56                 4241 	ld	d,(hl)
   0294 1A                 4242 	ld	a,(de)
   0295 4F                 4243 	ld	c,a
                           4244 ; genIpush
                           4245 ; AOP_STK for _setupPickle_sloc1_1_0
   0296 2B                 4246 	dec	hl
   0297 2B                 4247 	dec	hl
   0298 7E                 4248 	ld	a,(hl)
   0299 F5                 4249 	push	af
   029A 33                 4250 	inc	sp
                           4251 ; genIpush
   029B 79                 4252 	ld	a,c
   029C F5                 4253 	push	af
   029D 33                 4254 	inc	sp
                           4255 ; genIpush
   029E 21 30 02           4256 	ld	hl,#_pickleChar + 0
   02A1 E5                 4257 	push	hl
                           4258 ; genCall
   02A2 CD 8E 01           4259 	call	_movegamecharacter
   02A5 E8 04              4260 	lda	sp,4(sp)
                           4261 ; genLabel
   02A7                    4262 00101$:
                           4263 ; genEndFunction
   02A7 E8 03              4264 	lda	sp,3(sp)
   02A9 C1                 4265 	pop	bc
   02AA C9                 4266 	ret
   02AB                    4267 ___setupPickle_end:
                           4268 ;	main.c 50
                           4269 ; genLabel
                           4270 ; genFunction
                           4271 ;	---------------------------------
                           4272 ; Function setupFrog
                           4273 ; ---------------------------------
   02AB                    4274 ___setupFrog_start:
   02AB                    4275 _setupFrog:
   02AB C5                 4276 	push	bc
   02AC E8 FD              4277 	lda	sp,-3(sp)
                           4278 ;	main.c 52
                           4279 ; genPlus
                           4280 ; AOP_STK for _setupFrog_sloc0_1_0
                           4281 ; genPlusIncr
                           4282 ;	genPlusIncr failed
   02AE 11 28 02           4283 	ld	de,#_frogChar + 0
   02B1 21 04 00           4284 	ld	hl,#0x0004
   02B4 19                 4285 	add	hl,de
   02B5 7D                 4286 	ld	a,l
   02B6 54                 4287 	ld	d,h
   02B7 F8 01              4288 	lda	hl,1(sp)
   02B9 22                 4289 	ld	(hl+),a
   02BA 72                 4290 	ld	(hl),d
                           4291 ; genPlus
                           4292 ; genPlusIncr
   02BB 11 34 02           4293 	ld	de,#_pickleChar + 0 + 4
                           4294 ; genPointerGet
                           4295 ; AOP_STK for _setupFrog_sloc1_1_0
   02BE 1A                 4296 	ld	a,(de)
   02BF 2B                 4297 	dec	hl
   02C0 2B                 4298 	dec	hl
                           4299 ; genAssign (pointer)
                           4300 ; AOP_STK for _setupFrog_sloc0_1_0
                           4301 ; AOP_STK for _setupFrog_sloc1_1_0
   02C1 22                 4302 	ld	(hl+),a
   02C2 5E                 4303 	ld	e,(hl)
   02C3 23                 4304 	inc	hl
   02C4 56                 4305 	ld	d,(hl)
   02C5 2B                 4306 	dec	hl
   02C6 2B                 4307 	dec	hl
   02C7 7E                 4308 	ld	a,(hl)
   02C8 12                 4309 	ld	(de),a
                           4310 ;	main.c 53
                           4311 ; genPlus
                           4312 ; genPlusIncr
                           4313 ;	genPlusIncr failed
   02C9 3E 28              4314 	ld	a,#<_frogChar
   02CB C6 05              4315 	add	a,#0x05
   02CD 47                 4316 	ld	b,a
   02CE 3E 02              4317 	ld	a,#>_frogChar
   02D0 CE 00              4318 	adc	a,#0x00
   02D2 4F                 4319 	ld	c,a
                           4320 ; genAssign (pointer)
   02D3 58                 4321 	ld	e,b
   02D4 51                 4322 	ld	d,c
   02D5 3E 05              4323 	ld	a,#0x05
   02D7 12                 4324 	ld	(de),a
                           4325 ;	main.c 54
                           4326 ; genPlus
                           4327 ; genPlusIncr
   02D8 11 2E 02           4328 	ld	de,#_frogChar + 0 + 6
                           4329 ; genAssign (pointer)
   02DB 3E 10              4330 	ld	a,#0x10
   02DD 12                 4331 	ld	(de),a
                           4332 ;	main.c 55
                           4333 ; genPlus
                           4334 ; genPlusIncr
   02DE 11 2F 02           4335 	ld	de,#_frogChar + 0 + 7
                           4336 ; genAssign (pointer)
   02E1 3E 10              4337 	ld	a,#0x10
   02E3 12                 4338 	ld	(de),a
                           4339 ;	main.c 57
                           4340 ; genIpush
   02E4 3E 04              4341 	ld	a,#0x04
   02E6 F5                 4342 	push	af
   02E7 33                 4343 	inc	sp
                           4344 ; genIpush
   02E8 3E 04              4345 	ld	a,#0x04
   02EA F5                 4346 	push	af
   02EB 33                 4347 	inc	sp
                           4348 ; genCall
   02EC CD 00 00           4349 	call	_set_sprite_tile
   02EF E8 02              4350 	lda	sp,2(sp)
                           4351 ;	main.c 58
                           4352 ; genAssign (pointer)
   02F1 11 28 02           4353 	ld	de,#_frogChar + 0
   02F4 3E 04              4354 	ld	a,#0x04
   02F6 12                 4355 	ld	(de),a
                           4356 ;	main.c 59
                           4357 ; genIpush
   02F7 3E 05              4358 	ld	a,#0x05
   02F9 F5                 4359 	push	af
   02FA 33                 4360 	inc	sp
                           4361 ; genIpush
   02FB 3E 05              4362 	ld	a,#0x05
   02FD F5                 4363 	push	af
   02FE 33                 4364 	inc	sp
                           4365 ; genCall
   02FF CD 00 00           4366 	call	_set_sprite_tile
   0302 E8 02              4367 	lda	sp,2(sp)
                           4368 ;	main.c 60
                           4369 ; genPlus
                           4370 ; genPlusIncr
   0304 11 29 02           4371 	ld	de,#_frogChar + 0 + 1
                           4372 ; genAssign (pointer)
   0307 3E 05              4373 	ld	a,#0x05
   0309 12                 4374 	ld	(de),a
                           4375 ;	main.c 61
                           4376 ; genIpush
   030A 3E 06              4377 	ld	a,#0x06
   030C F5                 4378 	push	af
   030D 33                 4379 	inc	sp
                           4380 ; genIpush
   030E 3E 06              4381 	ld	a,#0x06
   0310 F5                 4382 	push	af
   0311 33                 4383 	inc	sp
                           4384 ; genCall
   0312 CD 00 00           4385 	call	_set_sprite_tile
   0315 E8 02              4386 	lda	sp,2(sp)
                           4387 ;	main.c 62
                           4388 ; genPlus
                           4389 ; genPlusIncr
   0317 11 2A 02           4390 	ld	de,#_frogChar + 0 + 2
                           4391 ; genAssign (pointer)
   031A 3E 06              4392 	ld	a,#0x06
   031C 12                 4393 	ld	(de),a
                           4394 ;	main.c 63
                           4395 ; genIpush
   031D 3E 07              4396 	ld	a,#0x07
   031F F5                 4397 	push	af
   0320 33                 4398 	inc	sp
                           4399 ; genIpush
   0321 3E 07              4400 	ld	a,#0x07
   0323 F5                 4401 	push	af
   0324 33                 4402 	inc	sp
                           4403 ; genCall
   0325 CD 00 00           4404 	call	_set_sprite_tile
   0328 E8 02              4405 	lda	sp,2(sp)
                           4406 ;	main.c 64
                           4407 ; genPlus
                           4408 ; genPlusIncr
   032A 11 2B 02           4409 	ld	de,#_frogChar + 0 + 3
                           4410 ; genAssign (pointer)
   032D 3E 07              4411 	ld	a,#0x07
   032F 12                 4412 	ld	(de),a
                           4413 ;	main.c 65
                           4414 ; genPointerGet
   0330 58                 4415 	ld	e,b
   0331 51                 4416 	ld	d,c
   0332 1A                 4417 	ld	a,(de)
   0333 47                 4418 	ld	b,a
                           4419 ; genIpush
   0334 78                 4420 	ld	a,b
   0335 F5                 4421 	push	af
   0336 33                 4422 	inc	sp
                           4423 ; genIpush
                           4424 ; AOP_STK for _setupFrog_sloc1_1_0
   0337 F8 01              4425 	lda	hl,1(sp)
   0339 7E                 4426 	ld	a,(hl)
   033A F5                 4427 	push	af
   033B 33                 4428 	inc	sp
                           4429 ; genIpush
   033C 21 28 02           4430 	ld	hl,#_frogChar + 0
   033F E5                 4431 	push	hl
                           4432 ; genCall
   0340 CD 8E 01           4433 	call	_movegamecharacter
   0343 E8 04              4434 	lda	sp,4(sp)
                           4435 ; genLabel
   0345                    4436 00101$:
                           4437 ; genEndFunction
   0345 E8 03              4438 	lda	sp,3(sp)
   0347 C1                 4439 	pop	bc
   0348 C9                 4440 	ret
   0349                    4441 ___setupFrog_end:
                           4442 ;	main.c 69
                           4443 ; genLabel
                           4444 ; genFunction
                           4445 ;	---------------------------------
                           4446 ; Function main
                           4447 ; ---------------------------------
   0349                    4448 ___main_start:
   0349                    4449 _main:
   0349 C5                 4450 	push	bc
   034A E8 F8              4451 	lda	sp,-8(sp)
                           4452 ;	main.c 70
                           4453 ; genIpush
   034C 21 00 00           4454 	ld	hl,#_sprites + 0
   034F E5                 4455 	push	hl
                           4456 ; genIpush
   0350 3E 08              4457 	ld	a,#0x08
   0352 F5                 4458 	push	af
   0353 33                 4459 	inc	sp
                           4460 ; genIpush
   0354 3E 00              4461 	ld	a,#0x00
   0356 F5                 4462 	push	af
   0357 33                 4463 	inc	sp
                           4464 ; genCall
   0358 CD 00 00           4465 	call	_set_sprite_data
   035B E8 04              4466 	lda	sp,4(sp)
                           4467 ;	main.c 71
                           4468 ; genCall
   035D CD 18 02           4469 	call	_setupPickle
                           4470 ;	main.c 72
                           4471 ; genCall
   0360 CD AB 02           4472 	call	_setupFrog
                           4473 ;	main.c 73
                           4474 ; genIpush
   0363 21 80 00           4475 	ld	hl,#_bgTiles + 0
   0366 E5                 4476 	push	hl
                           4477 ; genIpush
   0367 3E 04              4478 	ld	a,#0x04
   0369 F5                 4479 	push	af
   036A 33                 4480 	inc	sp
                           4481 ; genIpush
   036B 3E 00              4482 	ld	a,#0x00
   036D F5                 4483 	push	af
   036E 33                 4484 	inc	sp
                           4485 ; genCall
   036F CD 00 00           4486 	call	_set_bkg_data
   0372 E8 04              4487 	lda	sp,4(sp)
                           4488 ;	main.c 74
                           4489 ; genIpush
   0374 21 C0 00           4490 	ld	hl,#_playfield + 0
   0377 E5                 4491 	push	hl
                           4492 ; genIpush
   0378 3E 12              4493 	ld	a,#0x12
   037A F5                 4494 	push	af
   037B 33                 4495 	inc	sp
                           4496 ; genIpush
   037C 3E 14              4497 	ld	a,#0x14
   037E F5                 4498 	push	af
   037F 33                 4499 	inc	sp
                           4500 ; genIpush
   0380 3E 00              4501 	ld	a,#0x00
   0382 F5                 4502 	push	af
   0383 33                 4503 	inc	sp
                           4504 ; genIpush
   0384 3E 00              4505 	ld	a,#0x00
   0386 F5                 4506 	push	af
   0387 33                 4507 	inc	sp
                           4508 ; genCall
   0388 CD 00 00           4509 	call	_set_bkg_tiles
   038B E8 06              4510 	lda	sp,6(sp)
                           4511 ;	main.c 75
                           4512 ; genOr
                           4513 ; AOP_SFR for _LCDC_REG
                           4514 ; Type res[4] = l[4]&r[1]
                           4515 ; Size res[1] = l[1]&r[1]
   038D F0 00              4516 	ldh	a,(_LCDC_REG+0) ; x
   038F F6 01              4517 	or	a,#0x01
   0391 E0 00              4518 	ldh	(_LCDC_REG+0),a
                           4519 ;	main.c 76
                           4520 ; genOr
                           4521 ; AOP_SFR for _LCDC_REG
                           4522 ; Type res[4] = l[4]&r[1]
                           4523 ; Size res[1] = l[1]&r[1]
   0393 F0 00              4524 	ldh	a,(_LCDC_REG+0) ; x
   0395 F6 02              4525 	or	a,#0x02
   0397 E0 00              4526 	ldh	(_LCDC_REG+0),a
                           4527 ;	main.c 77
                           4528 ; genOr
                           4529 ; AOP_SFR for _LCDC_REG
                           4530 ; Type res[4] = l[4]&r[1]
                           4531 ; Size res[1] = l[1]&r[1]
   0399 F0 00              4532 	ldh	a,(_LCDC_REG+0) ; x
   039B F6 80              4533 	or	a,#0x80
   039D E0 00              4534 	ldh	(_LCDC_REG+0),a
                           4535 ;	main.c 78
                           4536 ; genPlus
                           4537 ; AOP_STK for _main_sloc0_1_0
                           4538 ; genPlusIncr
                           4539 ;	genPlusIncr failed
   039F 11 30 02           4540 	ld	de,#_pickleChar + 0
   03A2 21 04 00           4541 	ld	hl,#0x0004
   03A5 19                 4542 	add	hl,de
   03A6 7D                 4543 	ld	a,l
   03A7 54                 4544 	ld	d,h
   03A8 F8 06              4545 	lda	hl,6(sp)
   03AA 22                 4546 	ld	(hl+),a
   03AB 72                 4547 	ld	(hl),d
                           4548 ; genPlus
                           4549 ; AOP_STK for _main_sloc1_1_0
                           4550 ; genPlusIncr
                           4551 ;	genPlusIncr failed
   03AC 11 30 02           4552 	ld	de,#_pickleChar + 0
   03AF 21 05 00           4553 	ld	hl,#0x0005
   03B2 19                 4554 	add	hl,de
   03B3 7D                 4555 	ld	a,l
   03B4 54                 4556 	ld	d,h
   03B5 F8 04              4557 	lda	hl,4(sp)
   03B7 22                 4558 	ld	(hl+),a
   03B8 72                 4559 	ld	(hl),d
                           4560 ; genPlus
                           4561 ; AOP_STK for _main_sloc2_1_0
                           4562 ; genPlusIncr
                           4563 ;	genPlusIncr failed
   03B9 11 28 02           4564 	ld	de,#_frogChar + 0
   03BC 21 05 00           4565 	ld	hl,#0x0005
   03BF 19                 4566 	add	hl,de
   03C0 7D                 4567 	ld	a,l
   03C1 54                 4568 	ld	d,h
   03C2 F8 02              4569 	lda	hl,2(sp)
   03C4 22                 4570 	ld	(hl+),a
   03C5 72                 4571 	ld	(hl),d
                           4572 ; genPlus
                           4573 ; AOP_STK for _main_sloc3_1_0
                           4574 ; genPlusIncr
                           4575 ;	genPlusIncr failed
   03C6 11 28 02           4576 	ld	de,#_frogChar + 0
   03C9 21 04 00           4577 	ld	hl,#0x0004
   03CC 19                 4578 	add	hl,de
   03CD 7D                 4579 	ld	a,l
   03CE 54                 4580 	ld	d,h
   03CF F8 00              4581 	lda	hl,0(sp)
   03D1 22                 4582 	ld	(hl+),a
   03D2 72                 4583 	ld	(hl),d
                           4584 ; genLabel
   03D3                    4585 00118$:
                           4586 ; genCmpLt
                           4587 ; AOP_HL for _lives
   03D3 21 39 02           4588 	ld	hl,#_lives + 0
   03D6 7E                 4589 	ld	a,(hl)
   03D7 FE 02              4590 	cp	#0x02
   03D9 DA 41 05           4591 	jp	c,00120$
                           4592 ;	main.c 79
                           4593 ; genCall
   03DC CD 00 00           4594 	call	_joypad
   03DF 4B                 4595 	ld	c,e
                           4596 ; genAnd
   03E0 79                 4597 	ld	a,c
   03E1 CB 4F              4598 	bit	1,a
   03E3 CA 0B 04           4599 	jp	z,00102$
                           4600 ;	main.c 80
                           4601 ; genPointerGet
                           4602 ; AOP_STK for _main_sloc0_1_0
   03E6 F8 06              4603 	lda	hl,6(sp)
   03E8 5E                 4604 	ld	e,(hl)
   03E9 23                 4605 	inc	hl
   03EA 56                 4606 	ld	d,(hl)
   03EB 1A                 4607 	ld	a,(de)
   03EC 4F                 4608 	ld	c,a
                           4609 ; genMinus
   03ED 0D                 4610 	dec	c
   03EE 0D                 4611 	dec	c
                           4612 ; genAssign (pointer)
                           4613 ; AOP_STK for _main_sloc0_1_0
   03EF 2B                 4614 	dec	hl
   03F0 5E                 4615 	ld	e,(hl)
   03F1 23                 4616 	inc	hl
   03F2 56                 4617 	ld	d,(hl)
   03F3 79                 4618 	ld	a,c
   03F4 12                 4619 	ld	(de),a
                           4620 ;	main.c 81
                           4621 ; genPointerGet
                           4622 ; AOP_STK for _main_sloc1_1_0
   03F5 F8 04              4623 	lda	hl,4(sp)
   03F7 5E                 4624 	ld	e,(hl)
   03F8 23                 4625 	inc	hl
   03F9 56                 4626 	ld	d,(hl)
   03FA 1A                 4627 	ld	a,(de)
   03FB 47                 4628 	ld	b,a
                           4629 ; genIpush
   03FC 78                 4630 	ld	a,b
   03FD F5                 4631 	push	af
   03FE 33                 4632 	inc	sp
                           4633 ; genIpush
   03FF 79                 4634 	ld	a,c
   0400 F5                 4635 	push	af
   0401 33                 4636 	inc	sp
                           4637 ; genIpush
   0402 21 30 02           4638 	ld	hl,#_pickleChar + 0
   0405 E5                 4639 	push	hl
                           4640 ; genCall
   0406 CD 8E 01           4641 	call	_movegamecharacter
   0409 E8 04              4642 	lda	sp,4(sp)
                           4643 ; genLabel
   040B                    4644 00102$:
                           4645 ;	main.c 83
                           4646 ; genCall
   040B CD 00 00           4647 	call	_joypad
   040E 4B                 4648 	ld	c,e
                           4649 ; genAnd
   040F 79                 4650 	ld	a,c
   0410 CB 47              4651 	bit	0,a
   0412 CA 3A 04           4652 	jp	z,00104$
                           4653 ;	main.c 84
                           4654 ; genPointerGet
                           4655 ; AOP_STK for _main_sloc0_1_0
   0415 F8 06              4656 	lda	hl,6(sp)
   0417 5E                 4657 	ld	e,(hl)
   0418 23                 4658 	inc	hl
   0419 56                 4659 	ld	d,(hl)
   041A 1A                 4660 	ld	a,(de)
   041B 4F                 4661 	ld	c,a
                           4662 ; genPlus
                           4663 ; genPlusIncr
   041C 0C                 4664 	inc	c
   041D 0C                 4665 	inc	c
                           4666 ; genAssign (pointer)
                           4667 ; AOP_STK for _main_sloc0_1_0
   041E 2B                 4668 	dec	hl
   041F 5E                 4669 	ld	e,(hl)
   0420 23                 4670 	inc	hl
   0421 56                 4671 	ld	d,(hl)
   0422 79                 4672 	ld	a,c
   0423 12                 4673 	ld	(de),a
                           4674 ;	main.c 85
                           4675 ; genPointerGet
                           4676 ; AOP_STK for _main_sloc1_1_0
   0424 F8 04              4677 	lda	hl,4(sp)
   0426 5E                 4678 	ld	e,(hl)
   0427 23                 4679 	inc	hl
   0428 56                 4680 	ld	d,(hl)
   0429 1A                 4681 	ld	a,(de)
   042A 47                 4682 	ld	b,a
                           4683 ; genIpush
   042B 78                 4684 	ld	a,b
   042C F5                 4685 	push	af
   042D 33                 4686 	inc	sp
                           4687 ; genIpush
   042E 79                 4688 	ld	a,c
   042F F5                 4689 	push	af
   0430 33                 4690 	inc	sp
                           4691 ; genIpush
   0431 21 30 02           4692 	ld	hl,#_pickleChar + 0
   0434 E5                 4693 	push	hl
                           4694 ; genCall
   0435 CD 8E 01           4695 	call	_movegamecharacter
   0438 E8 04              4696 	lda	sp,4(sp)
                           4697 ; genLabel
   043A                    4698 00104$:
                           4699 ;	main.c 87
                           4700 ; genCall
   043A CD 00 00           4701 	call	_joypad
   043D 4B                 4702 	ld	c,e
                           4703 ; genAnd
   043E 79                 4704 	ld	a,c
   043F CB 57              4705 	bit	2,a
   0441 CA 68 04           4706 	jp	z,00106$
                           4707 ;	main.c 88
                           4708 ; genPointerGet
                           4709 ; AOP_STK for _main_sloc1_1_0
   0444 F8 04              4710 	lda	hl,4(sp)
   0446 5E                 4711 	ld	e,(hl)
   0447 23                 4712 	inc	hl
   0448 56                 4713 	ld	d,(hl)
   0449 1A                 4714 	ld	a,(de)
   044A 4F                 4715 	ld	c,a
                           4716 ; genMinus
   044B 0D                 4717 	dec	c
   044C 0D                 4718 	dec	c
                           4719 ; genAssign (pointer)
                           4720 ; AOP_STK for _main_sloc1_1_0
   044D 2B                 4721 	dec	hl
   044E 5E                 4722 	ld	e,(hl)
   044F 23                 4723 	inc	hl
   0450 56                 4724 	ld	d,(hl)
   0451 79                 4725 	ld	a,c
   0452 12                 4726 	ld	(de),a
                           4727 ;	main.c 89
                           4728 ; genPointerGet
                           4729 ; AOP_STK for _main_sloc0_1_0
   0453 23                 4730 	inc	hl
   0454 5E                 4731 	ld	e,(hl)
   0455 23                 4732 	inc	hl
   0456 56                 4733 	ld	d,(hl)
   0457 1A                 4734 	ld	a,(de)
   0458 47                 4735 	ld	b,a
                           4736 ; genIpush
   0459 79                 4737 	ld	a,c
   045A F5                 4738 	push	af
   045B 33                 4739 	inc	sp
                           4740 ; genIpush
   045C 78                 4741 	ld	a,b
   045D F5                 4742 	push	af
   045E 33                 4743 	inc	sp
                           4744 ; genIpush
   045F 21 30 02           4745 	ld	hl,#_pickleChar + 0
   0462 E5                 4746 	push	hl
                           4747 ; genCall
   0463 CD 8E 01           4748 	call	_movegamecharacter
   0466 E8 04              4749 	lda	sp,4(sp)
                           4750 ; genLabel
   0468                    4751 00106$:
                           4752 ;	main.c 91
                           4753 ; genCall
   0468 CD 00 00           4754 	call	_joypad
   046B 4B                 4755 	ld	c,e
                           4756 ; genAnd
   046C 79                 4757 	ld	a,c
   046D CB 5F              4758 	bit	3,a
   046F CA 96 04           4759 	jp	z,00108$
                           4760 ;	main.c 92
                           4761 ; genPointerGet
                           4762 ; AOP_STK for _main_sloc1_1_0
   0472 F8 04              4763 	lda	hl,4(sp)
   0474 5E                 4764 	ld	e,(hl)
   0475 23                 4765 	inc	hl
   0476 56                 4766 	ld	d,(hl)
   0477 1A                 4767 	ld	a,(de)
   0478 4F                 4768 	ld	c,a
                           4769 ; genPlus
                           4770 ; genPlusIncr
   0479 0C                 4771 	inc	c
   047A 0C                 4772 	inc	c
                           4773 ; genAssign (pointer)
                           4774 ; AOP_STK for _main_sloc1_1_0
   047B 2B                 4775 	dec	hl
   047C 5E                 4776 	ld	e,(hl)
   047D 23                 4777 	inc	hl
   047E 56                 4778 	ld	d,(hl)
   047F 79                 4779 	ld	a,c
   0480 12                 4780 	ld	(de),a
                           4781 ;	main.c 93
                           4782 ; genPointerGet
                           4783 ; AOP_STK for _main_sloc0_1_0
   0481 23                 4784 	inc	hl
   0482 5E                 4785 	ld	e,(hl)
   0483 23                 4786 	inc	hl
   0484 56                 4787 	ld	d,(hl)
   0485 1A                 4788 	ld	a,(de)
   0486 47                 4789 	ld	b,a
                           4790 ; genIpush
   0487 79                 4791 	ld	a,c
   0488 F5                 4792 	push	af
   0489 33                 4793 	inc	sp
                           4794 ; genIpush
   048A 78                 4795 	ld	a,b
   048B F5                 4796 	push	af
   048C 33                 4797 	inc	sp
                           4798 ; genIpush
   048D 21 30 02           4799 	ld	hl,#_pickleChar + 0
   0490 E5                 4800 	push	hl
                           4801 ; genCall
   0491 CD 8E 01           4802 	call	_movegamecharacter
   0494 E8 04              4803 	lda	sp,4(sp)
                           4804 ; genLabel
   0496                    4805 00108$:
                           4806 ;	main.c 95
                           4807 ; genPointerGet
                           4808 ; AOP_STK for _main_sloc2_1_0
   0496 F8 02              4809 	lda	hl,2(sp)
   0498 5E                 4810 	ld	e,(hl)
   0499 23                 4811 	inc	hl
   049A 56                 4812 	ld	d,(hl)
   049B 1A                 4813 	ld	a,(de)
   049C 4F                 4814 	ld	c,a
                           4815 ; genPointerGet
                           4816 ; AOP_STK for _main_sloc3_1_0
   049D F8 00              4817 	lda	hl,0(sp)
   049F 5E                 4818 	ld	e,(hl)
   04A0 23                 4819 	inc	hl
   04A1 56                 4820 	ld	d,(hl)
   04A2 1A                 4821 	ld	a,(de)
   04A3 47                 4822 	ld	b,a
                           4823 ; genIpush
   04A4 79                 4824 	ld	a,c
   04A5 F5                 4825 	push	af
   04A6 33                 4826 	inc	sp
                           4827 ; genIpush
   04A7 78                 4828 	ld	a,b
   04A8 F5                 4829 	push	af
   04A9 33                 4830 	inc	sp
                           4831 ; genIpush
   04AA 21 28 02           4832 	ld	hl,#_frogChar + 0
   04AD E5                 4833 	push	hl
                           4834 ; genCall
   04AE CD 8E 01           4835 	call	_movegamecharacter
   04B1 E8 04              4836 	lda	sp,4(sp)
                           4837 ;	main.c 97
                           4838 ; genPointerGet
                           4839 ; AOP_STK for _main_sloc0_1_0
   04B3 F8 06              4840 	lda	hl,6(sp)
   04B5 5E                 4841 	ld	e,(hl)
   04B6 23                 4842 	inc	hl
   04B7 56                 4843 	ld	d,(hl)
   04B8 1A                 4844 	ld	a,(de)
   04B9 4F                 4845 	ld	c,a
                           4846 ; genPointerGet
                           4847 ; AOP_STK for _main_sloc3_1_0
   04BA F8 00              4848 	lda	hl,0(sp)
   04BC 5E                 4849 	ld	e,(hl)
   04BD 23                 4850 	inc	hl
   04BE 56                 4851 	ld	d,(hl)
   04BF 1A                 4852 	ld	a,(de)
   04C0 47                 4853 	ld	b,a
                           4854 ; genCmpLt
   04C1 AF                 4855 	xor	a,a
   04C2 79                 4856 	ld	a,c
   04C3 98                 4857 	sbc	a,b ; 2
   04C4 DA D7 04           4858 	jp	c,00112$
                           4859 ;	main.c 98
                           4860 ; genPointerGet
                           4861 ; AOP_STK for _main_sloc3_1_0
   04C7 2B                 4862 	dec	hl
   04C8 5E                 4863 	ld	e,(hl)
   04C9 23                 4864 	inc	hl
   04CA 56                 4865 	ld	d,(hl)
   04CB 1A                 4866 	ld	a,(de)
   04CC 47                 4867 	ld	b,a
                           4868 ; genPlus
                           4869 ; genPlusIncr
   04CD 04                 4870 	inc	b
                           4871 ; genAssign (pointer)
                           4872 ; AOP_STK for _main_sloc3_1_0
   04CE 2B                 4873 	dec	hl
   04CF 5E                 4874 	ld	e,(hl)
   04D0 23                 4875 	inc	hl
   04D1 56                 4876 	ld	d,(hl)
   04D2 78                 4877 	ld	a,b
   04D3 12                 4878 	ld	(de),a
                           4879 ; genGoto
   04D4 C3 F1 04           4880 	jp	00113$
                           4881 ; genLabel
   04D7                    4882 00112$:
                           4883 ;	main.c 100
                           4884 ; genPointerGet
                           4885 ; AOP_STK for _main_sloc3_1_0
   04D7 F8 00              4886 	lda	hl,0(sp)
   04D9 5E                 4887 	ld	e,(hl)
   04DA 23                 4888 	inc	hl
   04DB 56                 4889 	ld	d,(hl)
   04DC 1A                 4890 	ld	a,(de)
   04DD 47                 4891 	ld	b,a
                           4892 ; genCmpGt
   04DE AF                 4893 	xor	a,a
   04DF 78                 4894 	ld	a,b
   04E0 99                 4895 	sbc	a,c ; 2
   04E1 DA F1 04           4896 	jp	c,00113$
                           4897 ;	main.c 101
                           4898 ; genPointerGet
                           4899 ; AOP_STK for _main_sloc3_1_0
   04E4 2B                 4900 	dec	hl
   04E5 5E                 4901 	ld	e,(hl)
   04E6 23                 4902 	inc	hl
   04E7 56                 4903 	ld	d,(hl)
   04E8 1A                 4904 	ld	a,(de)
   04E9 4F                 4905 	ld	c,a
                           4906 ; genMinus
   04EA 0D                 4907 	dec	c
                           4908 ; genAssign (pointer)
                           4909 ; AOP_STK for _main_sloc3_1_0
   04EB 2B                 4910 	dec	hl
   04EC 5E                 4911 	ld	e,(hl)
   04ED 23                 4912 	inc	hl
   04EE 56                 4913 	ld	d,(hl)
   04EF 79                 4914 	ld	a,c
   04F0 12                 4915 	ld	(de),a
                           4916 ; genLabel
   04F1                    4917 00113$:
                           4918 ;	main.c 104
                           4919 ; genPointerGet
                           4920 ; AOP_STK for _main_sloc1_1_0
   04F1 F8 04              4921 	lda	hl,4(sp)
   04F3 5E                 4922 	ld	e,(hl)
   04F4 23                 4923 	inc	hl
   04F5 56                 4924 	ld	d,(hl)
   04F6 1A                 4925 	ld	a,(de)
   04F7 4F                 4926 	ld	c,a
                           4927 ; genCmpGt
   04F8 AF                 4928 	xor	a,a
   04F9 3E 64              4929 	ld	a,#0x64
   04FB 99                 4930 	sbc	a,c ; 2
   04FC DA 06 05           4931 	jp	c,00115$
                           4932 ;	main.c 105
                           4933 ; genAssign (pointer)
                           4934 ; AOP_STK for _main_sloc1_1_0
   04FF 2B                 4935 	dec	hl
   0500 5E                 4936 	ld	e,(hl)
   0501 23                 4937 	inc	hl
   0502 56                 4938 	ld	d,(hl)
   0503 3E 65              4939 	ld	a,#0x65
   0505 12                 4940 	ld	(de),a
                           4941 ; genLabel
   0506                    4942 00115$:
                           4943 ;	main.c 108
                           4944 ; genIpush
   0506 21 28 02           4945 	ld	hl,#_frogChar + 0
   0509 E5                 4946 	push	hl
                           4947 ; genIpush
   050A 21 30 02           4948 	ld	hl,#_pickleChar + 0
   050D E5                 4949 	push	hl
                           4950 ; genCall
   050E CD 14 00           4951 	call	_checkcollisions
   0511 4B                 4952 	ld	c,e
   0512 E8 04              4953 	lda	sp,4(sp)
                           4954 ; genIfx
                           4955 ; Removed redundent or a,a
   0514 AF                 4956 	xor	a,a
   0515 B1                 4957 	or	a,c
   0516 CA 25 05           4958 	jp	z,00117$
                           4959 ;	main.c 109
                           4960 ; genAssign (pointer)
                           4961 ; AOP_STK for _main_sloc2_1_0
   0519 F8 02              4962 	lda	hl,2(sp)
   051B 5E                 4963 	ld	e,(hl)
   051C 23                 4964 	inc	hl
   051D 56                 4965 	ld	d,(hl)
   051E 3E 05              4966 	ld	a,#0x05
   0520 12                 4967 	ld	(de),a
                           4968 ;	main.c 110
                           4969 ; genMinus
                           4970 ; AOP_HL for _lives
   0521 21 39 02           4971 	ld	hl,#_lives + 0
   0524 35                 4972 	dec	(hl)
                           4973 ; genLabel
   0525                    4974 00117$:
                           4975 ;	main.c 113
                           4976 ; genPointerGet
                           4977 ; AOP_STK for _main_sloc2_1_0
   0525 F8 02              4978 	lda	hl,2(sp)
   0527 5E                 4979 	ld	e,(hl)
   0528 23                 4980 	inc	hl
   0529 56                 4981 	ld	d,(hl)
   052A 1A                 4982 	ld	a,(de)
   052B 4F                 4983 	ld	c,a
                           4984 ; genPlus
                           4985 ; genPlusIncr
   052C 0C                 4986 	inc	c
   052D 0C                 4987 	inc	c
   052E 0C                 4988 	inc	c
                           4989 ; genAssign (pointer)
                           4990 ; AOP_STK for _main_sloc2_1_0
   052F 2B                 4991 	dec	hl
   0530 5E                 4992 	ld	e,(hl)
   0531 23                 4993 	inc	hl
   0532 56                 4994 	ld	d,(hl)
   0533 79                 4995 	ld	a,c
   0534 12                 4996 	ld	(de),a
                           4997 ;	main.c 114
                           4998 ; genIpush
   0535 3E 02              4999 	ld	a,#0x02
   0537 F5                 5000 	push	af
   0538 33                 5001 	inc	sp
                           5002 ; genCall
   0539 CD 00 00           5003 	call	_performantdelay
   053C E8 01              5004 	lda	sp,1(sp)
                           5005 ; genGoto
   053E C3 D3 03           5006 	jp	00118$
                           5007 ; genLabel
   0541                    5008 00120$:
                           5009 ;	main.c 117
                           5010 ; genIpush
   0541 21 4E 05           5011 	ld	hl,#__str_0 + 0
   0544 E5                 5012 	push	hl
                           5013 ; genCall
   0545 CD 00 00           5014 	call	_printf
   0548 E8 02              5015 	lda	sp,2(sp)
                           5016 ; genLabel
   054A                    5017 00121$:
                           5018 ; genEndFunction
   054A E8 08              5019 	lda	sp,8(sp)
   054C C1                 5020 	pop	bc
   054D C9                 5021 	ret
   054E                    5022 ___main_end:
   054E                    5023 __str_0:
   054E 0A                 5024 	.db 0x0A
   054F 20                 5025 	.ascii " "
   0550 0A                 5026 	.db 0x0A
   0551 20                 5027 	.ascii " "
   0552 0A                 5028 	.db 0x0A
   0553 20                 5029 	.ascii " "
   0554 0A                 5030 	.db 0x0A
   0555 20 20 20 20 20 47  5031 	.ascii "     GAME OVER!"
        41 4D 45 20 4F 56
        45 52 21
   0564 00                 5032 	.db 0x00
                           5033 	.area _CODE
ASxxxx Assembler V01.75  (GameBoy Z80-like CPU), page 1.

Symbol Table

    _BCPD_REG                          **** GX
    _BCPS_REG                          **** GX
    _BGP_REG                           **** GX
    _DIV_REG                           **** GX
    _DMA_REG                           **** GX
    _HDMA1_REG                         **** GX
    _HDMA2_REG                         **** GX
    _HDMA3_REG                         **** GX
    _HDMA4_REG                         **** GX
    _HDMA5_REG                         **** GX
    _IE_REG                            **** GX
    _IF_REG                            **** GX
    _KEY1_REG                          **** GX
    _LCDC_REG                          **** GX
    _LYC_REG                           **** GX
    _LY_REG                            **** GX
    _NR10_REG                          **** GX
    _NR11_REG                          **** GX
    _NR12_REG                          **** GX
    _NR13_REG                          **** GX
    _NR14_REG                          **** GX
    _NR21_REG                          **** GX
    _NR22_REG                          **** GX
    _NR23_REG                          **** GX
    _NR24_REG                          **** GX
    _NR30_REG                          **** GX
    _NR31_REG                          **** GX
    _NR32_REG                          **** GX
    _NR33_REG                          **** GX
    _NR34_REG                          **** GX
    _NR41_REG                          **** GX
    _NR42_REG                          **** GX
    _NR43_REG                          **** GX
    _NR44_REG                          **** GX
    _NR50_REG                          **** GX
    _NR51_REG                          **** GX
    _NR52_REG                          **** GX
    _OBP0_REG                          **** GX
    _OBP1_REG                          **** GX
    _OCPD_REG                          **** GX
    _OCPS_REG                          **** GX
    _P1_REG                            **** GX
    _RP_REG                            **** GX
    _SB_REG                            **** GX
    _SCX_REG                           **** GX
    _SCY_REG                           **** GX
    _SC_REG                            **** GX
    _STAT_REG                          **** GX
    _SVBK_REG                          **** GX
    _TAC_REG                           **** GX
    _TIMA_REG                          **** GX
    _TMA_REG                           **** GX
    _VBK_REG                           **** GX
    _WX_REG                            **** GX
    _WY_REG                            **** GX
  0 ___checkcollisions_end             018E R
  0 ___checkcollisions_start           0014 R
  0 ___main_end                        054E R
  0 ___main_start                      0349 R
  0 ___movegamecharacter_end           0218 R
  0 ___movegamecharacter_start         018E R
  0 ___performantdelay_end             0014 R
  0 ___performantdelay_start           0000 R
  0 ___setupFrog_end                   0349 R
  0 ___setupFrog_start                 02AB R
  0 ___setupPickle_end                 02AB R
  0 ___setupPickle_start               0218 R
    __cpu                              **** GX
    __io_in                            **** GX
    __io_out                           **** GX
    __io_status                        **** GX
  0 __str_0                            054E R
  1 _bgTiles                           0080 GR
  0 _checkcollisions                   0014 GR
  1 _frogChar                          0228 GR
    _joypad                            **** GX
  1 _lives                             0239 GR
  0 _main                              0349 GR
    _move_sprite                       **** GX
  0 _movegamecharacter                 018E GR
  0 _performantdelay                   0000 GR
  1 _pickleChar                        0230 GR
  1 _playfield                         00C0 GR
    _printf                            **** GX
    _set_bkg_data                      **** GX
    _set_bkg_tiles                     **** GX
    _set_sprite_data                   **** GX
    _set_sprite_tile                   **** GX
  0 _setupFrog                         02AB GR
  0 _setupPickle                       0218 GR
  1 _sprites                           0000 GR
  1 _spritesize                        0238 GR
    _sys_time                          **** GX
    _wait_vbl_done                     **** GX

ASxxxx Assembler V01.75  (GameBoy Z80-like CPU), page 2.

Area Table

   0 _CODE                              size  565   flags 0
   1 _DATA                              size  23A   flags 0
   2 _OVERLAY                           size    0   flags 0
   3 _ISEG                              size    0   flags 0
   4 _BSEG                              size    0   flags 0
   5 _XSEG                              size    0   flags 0
   6 _GSINIT                            size  CFA   flags 0
   7 _GSFINAL                           size    0   flags 0
   8 _HOME                              size    0   flags 0
