;--------------------------------------------------------
; File Created by SDCC : free open source ANSI-C Compiler
; Version 4.1.6 #12539 (Linux)
;--------------------------------------------------------
	.module main
	.optsdcc -mgbz80
	
;--------------------------------------------------------
; Public variables in this module
;--------------------------------------------------------
	.globl _main
	.globl _setupFrog
	.globl _setupPickle
	.globl _movegamecharacter
	.globl _checkcollisions
	.globl _performantdelay
	.globl _set_sprite_data
	.globl _set_bkg_tiles
	.globl _set_bkg_data
	.globl _wait_vbl_done
	.globl _joypad
	.globl _killCounter
	.globl _lives
	.globl _spritesize
	.globl _gameoverTiles
	.globl _playfield
	.globl _bgTiles
	.globl _sprites
	.globl _pickleChar
	.globl _frogChar
;--------------------------------------------------------
; special function registers
;--------------------------------------------------------
;--------------------------------------------------------
; ram data
;--------------------------------------------------------
	.area _DATA
_frogChar::
	.ds 8
_pickleChar::
	.ds 8
;--------------------------------------------------------
; ram data
;--------------------------------------------------------
	.area _INITIALIZED
_sprites::
	.ds 128
_bgTiles::
	.ds 64
_playfield::
	.ds 360
_gameoverTiles::
	.ds 1600
_spritesize::
	.ds 1
_lives::
	.ds 1
_killCounter::
	.ds 1
;--------------------------------------------------------
; absolute external ram data
;--------------------------------------------------------
	.area _DABS (ABS)
;--------------------------------------------------------
; global & static initialisations
;--------------------------------------------------------
	.area _HOME
	.area _GSINIT
	.area _GSFINAL
	.area _GSINIT
;--------------------------------------------------------
; Home
;--------------------------------------------------------
	.area _HOME
	.area _HOME
;--------------------------------------------------------
; code
;--------------------------------------------------------
	.area _CODE
;main.c:14: void performantdelay(UINT8 numloops){
;	---------------------------------
; Function performantdelay
; ---------------------------------
_performantdelay::
;main.c:16: for (i=0; i < numloops; i++){
	ld	c, #0x00
00103$:
	ld	a, c
	ldhl	sp,	#2
	sub	a, (hl)
	ret	NC
;main.c:17: wait_vbl_done();
	call	_wait_vbl_done
;main.c:16: for (i=0; i < numloops; i++){
	inc	c
;main.c:19: }
	jr	00103$
;main.c:26: UBYTE checkcollisions(struct GameCharacter* one, struct GameCharacter* two){
;	---------------------------------
; Function checkcollisions
; ---------------------------------
_checkcollisions::
	add	sp, #-16
;main.c:27: return(one->x >= two->x && one->x <= two->x + two->width) && (one->y >= two->y && one->y <= two->y + two->height) || (two->x >= one->x && two->x <= one->x + one->width) && (two->y >= one->y && two->y <= one->y + one->height);
	ldhl	sp,	#18
	ld	a, (hl)
	ldhl	sp,	#2
	ld	(hl), a
	ldhl	sp,	#19
	ld	a, (hl)
	ldhl	sp,	#3
	ld	(hl-), a
	ld	a, (hl+)
	ld	e, a
	ld	d, (hl)
	ld	hl, #0x0004
	add	hl, de
	ld	c, l
	ld	b, h
	ld	a, (bc)
	ldhl	sp,	#4
	ld	(hl), a
	ldhl	sp,	#20
	ld	a, (hl)
	ldhl	sp,	#0
	ld	(hl), a
	ldhl	sp,	#21
	ld	a, (hl)
	ldhl	sp,	#1
	ld	(hl), a
	pop	de
	push	de
	ld	hl, #0x0004
	add	hl, de
	ld	c, l
	ld	b, h
	ld	a, (bc)
	ldhl	sp,	#5
	ld	(hl), a
	ld	a, (hl+)
	ld	(hl+), a
	ld	(hl), #0x00
	ldhl	sp,	#4
	ld	a, (hl)
	ldhl	sp,	#8
	ld	(hl+), a
	ld	(hl), #0x00
	ldhl	sp,#2
	ld	a, (hl+)
	ld	e, a
	ld	d, (hl)
	ld	hl, #0x0005
	add	hl, de
	push	hl
	ld	a, l
	ldhl	sp,	#12
	ld	(hl), a
	pop	hl
	ld	a, h
	ldhl	sp,	#11
	ld	(hl), a
	pop	de
	push	de
	ld	hl, #0x0005
	add	hl, de
	push	hl
	ld	a, l
	ldhl	sp,	#14
	ld	(hl), a
	pop	hl
	ld	a, h
	ldhl	sp,	#13
	ld	(hl), a
	ldhl	sp,	#4
	ld	a, (hl+)
	sub	a, (hl)
	jr	C, 00108$
	pop	de
	push	de
	ld	hl, #0x0006
	add	hl, de
	ld	c, l
	ld	b, h
	ld	a, (bc)
	ld	d, #0x00
	ld	e, a
	ldhl	sp,	#6
	ld	a,	(hl+)
	ld	h, (hl)
	ld	l, a
	add	hl, de
	ld	c, l
	ld	b, h
	ldhl	sp,	#8
	ld	a, c
	sub	a, (hl)
	inc	hl
	ld	a, b
	sbc	a, (hl)
	ld	a, b
	ld	d, a
	bit	7, (hl)
	jr	Z, 00152$
	bit	7, d
	jr	NZ, 00153$
	cp	a, a
	jr	00153$
00152$:
	bit	7, d
	jr	Z, 00153$
	scf
00153$:
	jr	C, 00108$
	ldhl	sp,#10
	ld	a, (hl+)
	ld	e, a
	ld	d, (hl)
	ld	a, (de)
	ldhl	sp,	#15
	ld	(hl-), a
	dec	hl
	dec	hl
	ld	a, (hl+)
	ld	e, a
	ld	a, (hl+)
	inc	hl
	ld	d, a
	ld	a, (de)
	ld	c, a
	ld	a, (hl)
	sub	a, c
	jr	C, 00108$
	ld	b, #0x00
	pop	de
	push	de
	ld	hl, #0x0007
	add	hl, de
	ld	e, l
	ld	d, h
	ld	a, (de)
	ld	l, a
;	spillPairReg hl
;	spillPairReg hl
	ld	h, #0x00
;	spillPairReg hl
;	spillPairReg hl
	add	hl, bc
	ld	c, l
	ld	b, h
	ldhl	sp,	#15
	ld	a, (hl-)
	ld	(hl+), a
	xor	a, a
	ld	(hl-), a
	ld	a, c
	sub	a, (hl)
	inc	hl
	ld	a, b
	sbc	a, (hl)
	ld	a, b
	ld	d, a
	bit	7, (hl)
	jr	Z, 00154$
	bit	7, d
	jr	NZ, 00155$
	cp	a, a
	jr	00155$
00154$:
	bit	7, d
	jr	Z, 00155$
	scf
00155$:
	jp	NC, 00104$
00108$:
	ldhl	sp,	#5
	ld	a, (hl-)
	sub	a, (hl)
	jp	C, 00103$
	dec	hl
	dec	hl
	ld	a, (hl+)
	ld	e, a
	ld	d, (hl)
	ld	hl, #0x0006
	add	hl, de
	ld	c, l
	ld	b, h
	ld	a, (bc)
	ld	d, #0x00
	ld	e, a
	ldhl	sp,	#8
	ld	a,	(hl+)
	ld	h, (hl)
	ld	l, a
	add	hl, de
	ld	c, l
	ld	b, h
	ldhl	sp,	#6
	ld	a, c
	sub	a, (hl)
	inc	hl
	ld	a, b
	sbc	a, (hl)
	ld	a, b
	ld	d, a
	bit	7, (hl)
	jr	Z, 00156$
	bit	7, d
	jr	NZ, 00157$
	cp	a, a
	jr	00157$
00156$:
	bit	7, d
	jr	Z, 00157$
	scf
00157$:
	jr	C, 00103$
	ldhl	sp,#12
	ld	a, (hl+)
	ld	e, a
	ld	a, (hl+)
	inc	hl
	ld	d, a
	ld	a, (de)
	ld	(hl), a
	ldhl	sp,#10
	ld	a, (hl+)
	ld	e, a
	ld	d, (hl)
	ld	a, (de)
	ld	c, a
	ldhl	sp,	#15
	ld	a, (hl)
	sub	a, c
	jr	C, 00103$
	ldhl	sp,	#11
	ld	a, c
	ld	(hl+), a
	ld	(hl), #0x00
	ldhl	sp,#2
	ld	a, (hl+)
	ld	e, a
	ld	d, (hl)
	ld	hl, #0x0007
	add	hl, de
	push	hl
	ld	a, l
	ldhl	sp,	#15
	ld	(hl), a
	pop	hl
	ld	a, h
	ldhl	sp,	#14
	ld	(hl-), a
	ld	a, (hl+)
	ld	e, a
	ld	d, (hl)
	ld	a, (de)
	ld	(hl), a
	ld	a, (hl-)
	ld	(hl+), a
	xor	a, a
	ld	(hl-), a
	ld	a, (hl+)
	ld	e, a
	ld	d, (hl)
	ldhl	sp,	#11
	ld	a,	(hl+)
	ld	h, (hl)
	ld	l, a
	add	hl, de
	push	hl
	ld	a, l
	ldhl	sp,	#11
	ld	(hl), a
	pop	hl
	ld	a, h
	ldhl	sp,	#10
	ld	(hl), a
	ldhl	sp,	#15
	ld	a, (hl-)
	ld	(hl+), a
	ld	(hl), #0x00
	ldhl	sp,	#9
	ld	e, l
	ld	d, h
	ldhl	sp,	#14
	ld	a, (de)
	inc	de
	sub	a, (hl)
	inc	hl
	ld	a, (de)
	sbc	a, (hl)
	ld	a, (de)
	ld	d, a
	bit	7, (hl)
	jr	Z, 00158$
	bit	7, d
	jr	NZ, 00159$
	cp	a, a
	jr	00159$
00158$:
	bit	7, d
	jr	Z, 00159$
	scf
00159$:
	jr	NC, 00104$
00103$:
	ldhl	sp,	#15
	ld	(hl), #0x00
	jr	00105$
00104$:
	ldhl	sp,	#15
	ld	(hl), #0x01
00105$:
	ldhl	sp,	#15
	ld	e, (hl)
;main.c:28: }
	add	sp, #16
	ret
;main.c:30: void movegamecharacter(struct GameCharacter* character, UINT8 x, UINT8 y){
;	---------------------------------
; Function movegamecharacter
; ---------------------------------
_movegamecharacter::
	add	sp, #-3
;main.c:31: move_sprite(character->spritids[0], x, y);
	ldhl	sp,	#8
	ld	a, (hl)
	ldhl	sp,	#0
	ld	(hl), a
	ldhl	sp,	#7
	ld	a, (hl)
	ldhl	sp,	#1
	ld	(hl), a
	ldhl	sp,	#5
	ld	a, (hl+)
	ld	e, a
	ld	d, (hl)
	ld	a, (de)
;/opt/gbdk/include/gb/gb.h:1520: OAM_item_t * itm = &shadow_OAM[nb];
	ld	l, a
;	spillPairReg hl
;	spillPairReg hl
	ld	h, #0x00
;	spillPairReg hl
;	spillPairReg hl
	add	hl, hl
	add	hl, hl
	ld	bc, #_shadow_OAM
	add	hl, bc
	ld	c, l
	ld	b, h
;/opt/gbdk/include/gb/gb.h:1521: itm->y=y, itm->x=x;
	ldhl	sp,	#0
	ld	a, (hl+)
	ld	(bc), a
	inc	bc
	ld	a, (hl)
	ld	(bc), a
;main.c:32: move_sprite(character->spritids[1], x + spritesize, y);
	ld	a, (hl)
	ld	hl, #_spritesize
	add	a, (hl)
	ld	l, e
;	spillPairReg hl
;	spillPairReg hl
	ld	h, d
;	spillPairReg hl
;	spillPairReg hl
	inc	hl
	ld	c, (hl)
	ldhl	sp,	#2
	ld	(hl), a
;/opt/gbdk/include/gb/gb.h:1520: OAM_item_t * itm = &shadow_OAM[nb];
	ld	l, c
;	spillPairReg hl
;	spillPairReg hl
	ld	h, #0x00
;	spillPairReg hl
;	spillPairReg hl
	add	hl, hl
	add	hl, hl
	ld	bc, #_shadow_OAM
	add	hl, bc
	ld	c, l
	ld	b, h
;/opt/gbdk/include/gb/gb.h:1521: itm->y=y, itm->x=x;
	ldhl	sp,	#0
	ld	a, (hl+)
	inc	hl
	ld	(bc), a
	inc	bc
	ld	a, (hl)
	ld	(bc), a
;main.c:33: move_sprite(character->spritids[2], x, spritesize + y);
	ld	a, (#_spritesize)
	ldhl	sp,	#0
	add	a, (hl)
	ld	c, a
	ld	l, e
;	spillPairReg hl
;	spillPairReg hl
	ld	h, d
;	spillPairReg hl
;	spillPairReg hl
	inc	hl
	inc	hl
;/opt/gbdk/include/gb/gb.h:1520: OAM_item_t * itm = &shadow_OAM[nb];
	ld	l, (hl)
;	spillPairReg hl
;	spillPairReg hl
	ld	h, #0x00
;	spillPairReg hl
;	spillPairReg hl
	add	hl, hl
	add	hl, hl
	push	de
	ld	de, #_shadow_OAM
	add	hl, de
	pop	de
;/opt/gbdk/include/gb/gb.h:1521: itm->y=y, itm->x=x;
	ld	a, c
	ld	(hl+), a
	ld	c, l
	ld	b, h
	ldhl	sp,	#1
;main.c:34: move_sprite(character->spritids[3], x + spritesize, y + spritesize);
	ld	a, (hl-)
	ld	(bc), a
	ld	a, (hl)
	ld	hl, #_spritesize
	add	a, (hl)
	ld	b, a
	ldhl	sp,	#1
	ld	a, (hl)
	ld	hl, #_spritesize
	add	a, (hl)
	ld	c, a
	inc	de
	inc	de
	inc	de
	ld	a, (de)
;/opt/gbdk/include/gb/gb.h:1520: OAM_item_t * itm = &shadow_OAM[nb];
	ld	l, a
;	spillPairReg hl
;	spillPairReg hl
	ld	h, #0x00
;	spillPairReg hl
;	spillPairReg hl
	add	hl, hl
	add	hl, hl
	ld	de, #_shadow_OAM
	add	hl, de
;/opt/gbdk/include/gb/gb.h:1521: itm->y=y, itm->x=x;
	ld	a, b
	ld	(hl+), a
	ld	(hl), c
;main.c:34: move_sprite(character->spritids[3], x + spritesize, y + spritesize);
;main.c:35: }
	add	sp, #3
	ret
;main.c:37: void setupPickle(){
;	---------------------------------
; Function setupPickle
; ---------------------------------
_setupPickle::
;main.c:38: pickleChar.x = 80;
	ld	bc, #_pickleChar+0
	ld	hl, #(_pickleChar + 4)
	ld	(hl), #0x50
;main.c:39: pickleChar.y = 130;
	ld	hl, #(_pickleChar + 5)
	ld	(hl), #0x82
;main.c:40: pickleChar.width = 16;
	ld	hl, #(_pickleChar + 6)
	ld	(hl), #0x10
;main.c:41: pickleChar.height = 16;
	ld	hl, #(_pickleChar + 7)
	ld	(hl), #0x10
;/opt/gbdk/include/gb/gb.h:1447: shadow_OAM[nb].tile=tile;
	ld	hl, #(_shadow_OAM + 2)
	ld	(hl), #0x00
;main.c:44: pickleChar.spritids[0] = 0;
	xor	a, a
	ld	(bc), a
;/opt/gbdk/include/gb/gb.h:1447: shadow_OAM[nb].tile=tile;
	ld	hl, #(_shadow_OAM + 6)
	ld	(hl), #0x01
;main.c:46: pickleChar.spritids[1] = 1;
	ld	hl, #(_pickleChar + 1)
	ld	(hl), #0x01
;/opt/gbdk/include/gb/gb.h:1447: shadow_OAM[nb].tile=tile;
	ld	hl, #(_shadow_OAM + 10)
	ld	(hl), #0x02
;main.c:48: pickleChar.spritids[2] = 2;
	ld	hl, #(_pickleChar + 2)
	ld	(hl), #0x02
;/opt/gbdk/include/gb/gb.h:1447: shadow_OAM[nb].tile=tile;
	ld	hl, #(_shadow_OAM + 14)
	ld	(hl), #0x03
;main.c:50: pickleChar.spritids[3] = 3;
	ld	hl, #(_pickleChar + 3)
	ld	(hl), #0x03
;main.c:52: movegamecharacter(&pickleChar, pickleChar.x, pickleChar.y);
	ld	a, (#(_pickleChar + 5) + 0)
	ld	hl, #(_pickleChar + 4)
	ld	h, (hl)
;	spillPairReg hl
	push	af
	inc	sp
	push	hl
	inc	sp
	push	bc
	call	_movegamecharacter
	add	sp, #4
;main.c:53: }
	ret
;main.c:59: void setupFrog(){
;	---------------------------------
; Function setupFrog
; ---------------------------------
_setupFrog::
;main.c:61: frogChar.x = pickleChar.x;
	ld	hl, #(_pickleChar + 4)
	ld	b, (hl)
	ld	hl, #(_frogChar + 4)
	ld	(hl), b
;main.c:62: frogChar.y = 5;
	ld	hl, #(_frogChar + 5)
	ld	(hl), #0x05
;main.c:63: frogChar.width = 16;
	ld	hl, #(_frogChar + 6)
	ld	(hl), #0x10
;main.c:64: frogChar.height = 16;
	ld	hl, #(_frogChar + 7)
	ld	(hl), #0x10
;/opt/gbdk/include/gb/gb.h:1447: shadow_OAM[nb].tile=tile;
	ld	hl, #(_shadow_OAM + 18)
	ld	(hl), #0x04
;main.c:67: frogChar.spritids[0] = 4;
	ld	hl, #_frogChar
	ld	(hl), #0x04
;/opt/gbdk/include/gb/gb.h:1447: shadow_OAM[nb].tile=tile;
	ld	hl, #(_shadow_OAM + 22)
	ld	(hl), #0x05
;main.c:69: frogChar.spritids[1] = 5;
	ld	hl, #(_frogChar + 1)
	ld	(hl), #0x05
;/opt/gbdk/include/gb/gb.h:1447: shadow_OAM[nb].tile=tile;
	ld	hl, #(_shadow_OAM + 26)
	ld	(hl), #0x06
;main.c:71: frogChar.spritids[2] = 6;
	ld	hl, #(_frogChar + 2)
	ld	(hl), #0x06
;/opt/gbdk/include/gb/gb.h:1447: shadow_OAM[nb].tile=tile;
	ld	hl, #(_shadow_OAM + 30)
	ld	(hl), #0x07
;main.c:73: frogChar.spritids[3] = 7;
	ld	hl, #(_frogChar + 3)
	ld	(hl), #0x07
;main.c:74: movegamecharacter(&frogChar, frogChar.x, frogChar.y);
	ld	a, (#(_frogChar + 5) + 0)
	push	af
	inc	sp
	push	bc
	inc	sp
	ld	de, #_frogChar
	push	de
	call	_movegamecharacter
	add	sp, #4
;main.c:76: }
	ret
;main.c:79: void main(){
;	---------------------------------
; Function main
; ---------------------------------
_main::
	add	sp, #-3
;main.c:80: set_sprite_data(0, 8, sprites);
	ld	de, #_sprites
	push	de
	ld	hl, #0x800
	push	hl
	call	_set_sprite_data
	add	sp, #4
;main.c:81: setupPickle();
	call	_setupPickle
;main.c:82: setupFrog();
	call	_setupFrog
;main.c:84: set_bkg_data(0,4, bgTiles);
	ld	de, #_bgTiles
	push	de
	ld	hl, #0x400
	push	hl
	call	_set_bkg_data
	add	sp, #4
;main.c:85: set_bkg_tiles(0,0,20,18, playfield);
	ld	de, #_playfield
	push	de
	ld	hl, #0x1214
	push	hl
	xor	a, a
	rrca
	push	af
	call	_set_bkg_tiles
	add	sp, #6
;main.c:86: SHOW_BKG;
	ldh	a, (_LCDC_REG + 0)
	or	a, #0x01
	ldh	(_LCDC_REG + 0), a
;main.c:87: SHOW_SPRITES;
	ldh	a, (_LCDC_REG + 0)
	or	a, #0x02
	ldh	(_LCDC_REG + 0), a
;main.c:88: DISPLAY_ON;
	ldh	a, (_LCDC_REG + 0)
	or	a, #0x80
	ldh	(_LCDC_REG + 0), a
;main.c:89: while(lives >= 2){
00109$:
	ld	a, (#_lives)
	sub	a, #0x02
	jp	C, 00111$
;main.c:90: if(joypad() & J_LEFT){
	call	_joypad
	bit	1, e
	jr	Z, 00102$
;main.c:91: pickleChar.x -= 1;
	ld	a, (#(_pickleChar + 4) + 0)
	ldhl	sp,#2
	ld	(hl), a
	ld	a, (hl)
	dec	a
	ld	(#(_pickleChar + 4)),a
;main.c:92: movegamecharacter(&pickleChar, pickleChar.x, pickleChar.y);
	ld	hl, #(_pickleChar + 5)
	ld	b, (hl)
	ld	a, (#(_pickleChar + 4) + 0)
	push	bc
	inc	sp
	push	af
	inc	sp
	ld	de, #_pickleChar
	push	de
	call	_movegamecharacter
	add	sp, #4
00102$:
;main.c:94: if(joypad() & J_RIGHT){
	call	_joypad
	ld	a, e
	rrca
	jr	NC, 00104$
;main.c:95: pickleChar.x += 1;
	ld	bc, #_pickleChar + 4
	ld	a, (bc)
	inc	a
	ld	(bc), a
;main.c:96: movegamecharacter(&pickleChar, pickleChar.x, pickleChar.y);
	ld	hl, #(_pickleChar + 5)
	ld	h, (hl)
;	spillPairReg hl
	ld	a, (bc)
	push	hl
	inc	sp
	push	af
	inc	sp
	ld	de, #_pickleChar
	push	de
	call	_movegamecharacter
	add	sp, #4
00104$:
;main.c:98: if(joypad() & J_UP){
	call	_joypad
	bit	2, e
	jr	Z, 00106$
;main.c:99: pickleChar.y -= 1;
	ld	hl, #_pickleChar + 5
	dec	(hl)
	ld	a, (hl)
;main.c:100: movegamecharacter(&pickleChar, pickleChar.x, pickleChar.y);
	ld	b, (hl)
	ld	a, (#(_pickleChar + 4) + 0)
	push	bc
	inc	sp
	push	af
	inc	sp
	ld	de, #_pickleChar
	push	de
	call	_movegamecharacter
	add	sp, #4
00106$:
;main.c:102: if(joypad() & J_DOWN){
	call	_joypad
	bit	3, e
	jr	Z, 00109$
;main.c:103: pickleChar.y += 1;
	ld	hl, #_pickleChar + 5
	inc	(hl)
	ld	a, (hl)
;main.c:104: movegamecharacter(&pickleChar, pickleChar.x, pickleChar.y);
	ld	b, (hl)
	ld	a, (#(_pickleChar + 4) + 0)
	push	bc
	inc	sp
	push	af
	inc	sp
	ld	de, #_pickleChar
	push	de
	call	_movegamecharacter
	add	sp, #4
	jp	00109$
00111$:
;main.c:115: if(pickleChar.x >= frogChar.x){
	ld	a, (#(_pickleChar + 4) + 0)
	ldhl	sp,	#0
	ld	(hl), a
	ld	a, (#(_frogChar + 4) + 0)
;main.c:116: frogChar.x += 1;
	ldhl	sp,#1
	ld	(hl), a
	ld	a, (hl+)
;main.c:117: movegamecharacter(&frogChar, frogChar.x, frogChar.y); 
;main.c:115: if(pickleChar.x >= frogChar.x){
	ld	(hl-), a
	dec	hl
	ld	a, (hl+)
	sub	a, (hl)
	jr	C, 00115$
;main.c:116: frogChar.x += 1;
	inc	hl
	ld	a, (hl)
	inc	a
	ld	(#(_frogChar + 4)),a
;main.c:117: movegamecharacter(&frogChar, frogChar.x, frogChar.y); 
	ld	a, (#(_frogChar + 5) + 0)
	ld	hl, #(_frogChar + 4)
	ld	b, (hl)
	push	af
	inc	sp
	push	bc
	inc	sp
	ld	de, #_frogChar
	push	de
	call	_movegamecharacter
	add	sp, #4
	jr	00116$
00115$:
;main.c:120: else if(pickleChar.x <= frogChar.x){
	ldhl	sp,	#1
	ld	a, (hl-)
	sub	a, (hl)
	jr	C, 00116$
;main.c:121: frogChar.x -= 1;
	inc	hl
	inc	hl
	ld	a, (hl)
	dec	a
	ld	(#(_frogChar + 4)),a
;main.c:122: movegamecharacter(&frogChar, frogChar.x, frogChar.y); 
	ld	a, (#(_frogChar + 5) + 0)
	ldhl	sp,	#1
	ld	(hl), a
	ld	a, (#(_frogChar + 4) + 0)
	ldhl	sp,	#2
	ld	(hl), a
	ldhl	sp,	#1
	ld	a, (hl+)
	ld	d, a
	ld	e, (hl)
	push	de
	ld	de, #_frogChar
	push	de
	call	_movegamecharacter
	add	sp, #4
00116$:
;main.c:126: if (pickleChar.y <= 100){
	ld	hl, #_pickleChar + 5
	ld	c, (hl)
	ld	a, #0x64
	sub	a, c
	jr	C, 00118$
;main.c:127: pickleChar.y = 99;
	ld	(hl), #0x63
00118$:
;main.c:130: if(checkcollisions(&pickleChar, &frogChar)){
	ld	de, #_frogChar
	push	de
	ld	de, #_pickleChar
	push	de
	call	_checkcollisions
	add	sp, #4
	ld	a, e
	or	a, a
	jr	Z, 00120$
;main.c:131: frogChar.y = 5;
	ld	hl, #(_frogChar + 5)
	ld	(hl), #0x05
;main.c:132: lives -= 1;
	ld	hl, #_lives
	dec	(hl)
	ld	a, (hl)
00120$:
;main.c:141: frogChar.y += 3;
	ld	a, (#(_frogChar + 5) + 0)
	add	a, #0x03
	ld	(#(_frogChar + 5)),a
;main.c:142: performantdelay(2);
	ld	a, #0x02
	push	af
	inc	sp
	call	_performantdelay
;main.c:143: }   
	add	sp, #4
	ret
	.area _CODE
	.area _INITIALIZER
__xinit__sprites:
	.db #0x00	; 0
	.db #0x13	; 19
	.db #0x00	; 0
	.db #0x13	; 19
	.db #0x00	; 0
	.db #0x13	; 19
	.db #0x00	; 0
	.db #0x13	; 19
	.db #0x00	; 0
	.db #0x1f	; 31
	.db #0x00	; 0
	.db #0x03	; 3
	.db #0x00	; 0
	.db #0x03	; 3
	.db #0x00	; 0
	.db #0x03	; 3
	.db #0x00	; 0
	.db #0x90	; 144
	.db #0x00	; 0
	.db #0x90	; 144
	.db #0x00	; 0
	.db #0x90	; 144
	.db #0x00	; 0
	.db #0x90	; 144
	.db #0x00	; 0
	.db #0xf0	; 240
	.db #0x00	; 0
	.db #0x80	; 128
	.db #0x00	; 0
	.db #0x80	; 128
	.db #0x00	; 0
	.db #0x80	; 128
	.db #0x00	; 0
	.db #0x03	; 3
	.db #0x00	; 0
	.db #0x03	; 3
	.db #0x00	; 0
	.db #0x07	; 7
	.db #0x00	; 0
	.db #0x04	; 4
	.db #0x00	; 0
	.db #0x04	; 4
	.db #0x00	; 0
	.db #0x04	; 4
	.db #0x00	; 0
	.db #0x04	; 4
	.db #0x00	; 0
	.db #0x04	; 4
	.db #0x00	; 0
	.db #0x80	; 128
	.db #0x00	; 0
	.db #0x80	; 128
	.db #0x00	; 0
	.db #0xc0	; 192
	.db #0x00	; 0
	.db #0x40	; 64
	.db #0x00	; 0
	.db #0x40	; 64
	.db #0x00	; 0
	.db #0x40	; 64
	.db #0x00	; 0
	.db #0x40	; 64
	.db #0x00	; 0
	.db #0x40	; 64
	.db #0x00	; 0
	.db #0x00	; 0
	.db #0x00	; 0
	.db #0x00	; 0
	.db #0x20	; 32
	.db #0x20	; 32
	.db #0x20	; 32
	.db #0x20	; 32
	.db #0x20	; 32
	.db #0x20	; 32
	.db #0x22	; 34
	.db #0x22	; 34
	.db #0x27	; 39
	.db #0x27	; 39
	.db #0x3f	; 63
	.db #0x3f	; 63
	.db #0x00	; 0
	.db #0x00	; 0
	.db #0x00	; 0
	.db #0x00	; 0
	.db #0x00	; 0
	.db #0x00	; 0
	.db #0x00	; 0
	.db #0x00	; 0
	.db #0x00	; 0
	.db #0x00	; 0
	.db #0x80	; 128
	.db #0x80	; 128
	.db #0xc0	; 192
	.db #0xc0	; 192
	.db #0xf8	; 248
	.db #0xf8	; 248
	.db #0x0f	; 15
	.db #0x0f	; 15
	.db #0x0f	; 15
	.db #0x0f	; 15
	.db #0x1f	; 31
	.db #0x1f	; 31
	.db #0x10	; 16
	.db #0x10	; 16
	.db #0x10	; 16
	.db #0x10	; 16
	.db #0x00	; 0
	.db #0x00	; 0
	.db #0x00	; 0
	.db #0x00	; 0
	.db #0x00	; 0
	.db #0x00	; 0
	.db #0xe0	; 224
	.db #0xe0	; 224
	.db #0xe0	; 224
	.db #0xe0	; 224
	.db #0xf0	; 240
	.db #0xf0	; 240
	.db #0x10	; 16
	.db #0x10	; 16
	.db #0x10	; 16
	.db #0x10	; 16
	.db #0x00	; 0
	.db #0x00	; 0
	.db #0x00	; 0
	.db #0x00	; 0
	.db #0x00	; 0
	.db #0x00	; 0
__xinit__bgTiles:
	.db #0x00	; 0
	.db #0x00	; 0
	.db #0x00	; 0
	.db #0x00	; 0
	.db #0x00	; 0
	.db #0x00	; 0
	.db #0x00	; 0
	.db #0x00	; 0
	.db #0x00	; 0
	.db #0x00	; 0
	.db #0x00	; 0
	.db #0x00	; 0
	.db #0x00	; 0
	.db #0x00	; 0
	.db #0x00	; 0
	.db #0x00	; 0
	.db #0xff	; 255
	.db #0x00	; 0
	.db #0xff	; 255
	.db #0x00	; 0
	.db #0xff	; 255
	.db #0x00	; 0
	.db #0xff	; 255
	.db #0x00	; 0
	.db #0xff	; 255
	.db #0x00	; 0
	.db #0xff	; 255
	.db #0x00	; 0
	.db #0xff	; 255
	.db #0x00	; 0
	.db #0xff	; 255
	.db #0x00	; 0
	.db #0x00	; 0
	.db #0xff	; 255
	.db #0x00	; 0
	.db #0xff	; 255
	.db #0x00	; 0
	.db #0xff	; 255
	.db #0x00	; 0
	.db #0xff	; 255
	.db #0x00	; 0
	.db #0xff	; 255
	.db #0x00	; 0
	.db #0xff	; 255
	.db #0x00	; 0
	.db #0xff	; 255
	.db #0x00	; 0
	.db #0xff	; 255
	.db #0xff	; 255
	.db #0xff	; 255
	.db #0xff	; 255
	.db #0xff	; 255
	.db #0xff	; 255
	.db #0xff	; 255
	.db #0xff	; 255
	.db #0xff	; 255
	.db #0xff	; 255
	.db #0xff	; 255
	.db #0xff	; 255
	.db #0xff	; 255
	.db #0xff	; 255
	.db #0xff	; 255
	.db #0xff	; 255
	.db #0xff	; 255
__xinit__playfield:
	.db #0x01	; 1
	.db #0x01	; 1
	.db #0x01	; 1
	.db #0x01	; 1
	.db #0x01	; 1
	.db #0x01	; 1
	.db #0x01	; 1
	.db #0x01	; 1
	.db #0x01	; 1
	.db #0x01	; 1
	.db #0x01	; 1
	.db #0x01	; 1
	.db #0x01	; 1
	.db #0x01	; 1
	.db #0x01	; 1
	.db #0x01	; 1
	.db #0x01	; 1
	.db #0x01	; 1
	.db #0x01	; 1
	.db #0x01	; 1
	.db #0x01	; 1
	.db #0x00	; 0
	.db #0x00	; 0
	.db #0x00	; 0
	.db #0x00	; 0
	.db #0x00	; 0
	.db #0x00	; 0
	.db #0x00	; 0
	.db #0x00	; 0
	.db #0x00	; 0
	.db #0x00	; 0
	.db #0x00	; 0
	.db #0x00	; 0
	.db #0x00	; 0
	.db #0x00	; 0
	.db #0x00	; 0
	.db #0x00	; 0
	.db #0x00	; 0
	.db #0x00	; 0
	.db #0x01	; 1
	.db #0x01	; 1
	.db #0x00	; 0
	.db #0x00	; 0
	.db #0x00	; 0
	.db #0x00	; 0
	.db #0x00	; 0
	.db #0x00	; 0
	.db #0x00	; 0
	.db #0x00	; 0
	.db #0x00	; 0
	.db #0x00	; 0
	.db #0x00	; 0
	.db #0x00	; 0
	.db #0x00	; 0
	.db #0x00	; 0
	.db #0x00	; 0
	.db #0x00	; 0
	.db #0x00	; 0
	.db #0x00	; 0
	.db #0x01	; 1
	.db #0x01	; 1
	.db #0x10	; 16
	.db #0x10	; 16
	.db #0x00	; 0
	.db #0x00	; 0
	.db #0x00	; 0
	.db #0x00	; 0
	.db #0x00	; 0
	.db #0x00	; 0
	.db #0x00	; 0
	.db #0x00	; 0
	.db #0x00	; 0
	.db #0x00	; 0
	.db #0x00	; 0
	.db #0x00	; 0
	.db #0x00	; 0
	.db #0x00	; 0
	.db #0x00	; 0
	.db #0x00	; 0
	.db #0x01	; 1
	.db #0x02	; 2
	.db #0x10	; 16
	.db #0x10	; 16
	.db #0x00	; 0
	.db #0x00	; 0
	.db #0x00	; 0
	.db #0x00	; 0
	.db #0x00	; 0
	.db #0x00	; 0
	.db #0x00	; 0
	.db #0x00	; 0
	.db #0x00	; 0
	.db #0x00	; 0
	.db #0x00	; 0
	.db #0x00	; 0
	.db #0x00	; 0
	.db #0x00	; 0
	.db #0x00	; 0
	.db #0x00	; 0
	.db #0x02	; 2
	.db #0x02	; 2
	.db #0x00	; 0
	.db #0x00	; 0
	.db #0x00	; 0
	.db #0x00	; 0
	.db #0x00	; 0
	.db #0x00	; 0
	.db #0x00	; 0
	.db #0x00	; 0
	.db #0x00	; 0
	.db #0x00	; 0
	.db #0x00	; 0
	.db #0x00	; 0
	.db #0x00	; 0
	.db #0x00	; 0
	.db #0x00	; 0
	.db #0x00	; 0
	.db #0x00	; 0
	.db #0x00	; 0
	.db #0x02	; 2
	.db #0x02	; 2
	.db #0x00	; 0
	.db #0x00	; 0
	.db #0x00	; 0
	.db #0x00	; 0
	.db #0x00	; 0
	.db #0x00	; 0
	.db #0x00	; 0
	.db #0x00	; 0
	.db #0x00	; 0
	.db #0x00	; 0
	.db #0x00	; 0
	.db #0x00	; 0
	.db #0x00	; 0
	.db #0x00	; 0
	.db #0x00	; 0
	.db #0x00	; 0
	.db #0x00	; 0
	.db #0x00	; 0
	.db #0x02	; 2
	.db #0x03	; 3
	.db #0x00	; 0
	.db #0x00	; 0
	.db #0x00	; 0
	.db #0x00	; 0
	.db #0x00	; 0
	.db #0x00	; 0
	.db #0x00	; 0
	.db #0x00	; 0
	.db #0x00	; 0
	.db #0x00	; 0
	.db #0x00	; 0
	.db #0x00	; 0
	.db #0x00	; 0
	.db #0x00	; 0
	.db #0x00	; 0
	.db #0x00	; 0
	.db #0x00	; 0
	.db #0x00	; 0
	.db #0x03	; 3
	.db #0x03	; 3
	.db #0x00	; 0
	.db #0x00	; 0
	.db #0x00	; 0
	.db #0x00	; 0
	.db #0x00	; 0
	.db #0x00	; 0
	.db #0x00	; 0
	.db #0x00	; 0
	.db #0x00	; 0
	.db #0x00	; 0
	.db #0x00	; 0
	.db #0x00	; 0
	.db #0x00	; 0
	.db #0x00	; 0
	.db #0x00	; 0
	.db #0x00	; 0
	.db #0x00	; 0
	.db #0x00	; 0
	.db #0x03	; 3
	.db #0x03	; 3
	.db #0x00	; 0
	.db #0x00	; 0
	.db #0x00	; 0
	.db #0x00	; 0
	.db #0x00	; 0
	.db #0x00	; 0
	.db #0x00	; 0
	.db #0x00	; 0
	.db #0x00	; 0
	.db #0x00	; 0
	.db #0x00	; 0
	.db #0x00	; 0
	.db #0x00	; 0
	.db #0x00	; 0
	.db #0x00	; 0
	.db #0x00	; 0
	.db #0x00	; 0
	.db #0x00	; 0
	.db #0x03	; 3
	.db #0x03	; 3
	.db #0x10	; 16
	.db #0x10	; 16
	.db #0x00	; 0
	.db #0x00	; 0
	.db #0x00	; 0
	.db #0x00	; 0
	.db #0x00	; 0
	.db #0x00	; 0
	.db #0x00	; 0
	.db #0x00	; 0
	.db #0x00	; 0
	.db #0x00	; 0
	.db #0x00	; 0
	.db #0x00	; 0
	.db #0x00	; 0
	.db #0x00	; 0
	.db #0x00	; 0
	.db #0x00	; 0
	.db #0x03	; 3
	.db #0x02	; 2
	.db #0x10	; 16
	.db #0x10	; 16
	.db #0x00	; 0
	.db #0x00	; 0
	.db #0x00	; 0
	.db #0x00	; 0
	.db #0x00	; 0
	.db #0x00	; 0
	.db #0x00	; 0
	.db #0x00	; 0
	.db #0x00	; 0
	.db #0x00	; 0
	.db #0x00	; 0
	.db #0x00	; 0
	.db #0x00	; 0
	.db #0x00	; 0
	.db #0x00	; 0
	.db #0x00	; 0
	.db #0x02	; 2
	.db #0x02	; 2
	.db #0x10	; 16
	.db #0x10	; 16
	.db #0x00	; 0
	.db #0x00	; 0
	.db #0x00	; 0
	.db #0x00	; 0
	.db #0x00	; 0
	.db #0x00	; 0
	.db #0x00	; 0
	.db #0x00	; 0
	.db #0x00	; 0
	.db #0x00	; 0
	.db #0x00	; 0
	.db #0x00	; 0
	.db #0x00	; 0
	.db #0x00	; 0
	.db #0x00	; 0
	.db #0x00	; 0
	.db #0x02	; 2
	.db #0x02	; 2
	.db #0x10	; 16
	.db #0x10	; 16
	.db #0x00	; 0
	.db #0x00	; 0
	.db #0x00	; 0
	.db #0x00	; 0
	.db #0x00	; 0
	.db #0x00	; 0
	.db #0x00	; 0
	.db #0x00	; 0
	.db #0x00	; 0
	.db #0x00	; 0
	.db #0x00	; 0
	.db #0x00	; 0
	.db #0x00	; 0
	.db #0x00	; 0
	.db #0x00	; 0
	.db #0x00	; 0
	.db #0x02	; 2
	.db #0x01	; 1
	.db #0x00	; 0
	.db #0x10	; 16
	.db #0x10	; 16
	.db #0x10	; 16
	.db #0x10	; 16
	.db #0x10	; 16
	.db #0x10	; 16
	.db #0x10	; 16
	.db #0x10	; 16
	.db #0x10	; 16
	.db #0x10	; 16
	.db #0x00	; 0
	.db #0x00	; 0
	.db #0x00	; 0
	.db #0x00	; 0
	.db #0x00	; 0
	.db #0x00	; 0
	.db #0x00	; 0
	.db #0x01	; 1
	.db #0x01	; 1
	.db #0x10	; 16
	.db #0x10	; 16
	.db #0x10	; 16
	.db #0x10	; 16
	.db #0x10	; 16
	.db #0x10	; 16
	.db #0x10	; 16
	.db #0x10	; 16
	.db #0x10	; 16
	.db #0x10	; 16
	.db #0x10	; 16
	.db #0x00	; 0
	.db #0x00	; 0
	.db #0x00	; 0
	.db #0x00	; 0
	.db #0x00	; 0
	.db #0x00	; 0
	.db #0x00	; 0
	.db #0x01	; 1
	.db #0x01	; 1
	.db #0x10	; 16
	.db #0x10	; 16
	.db #0x10	; 16
	.db #0x10	; 16
	.db #0x10	; 16
	.db #0x10	; 16
	.db #0x10	; 16
	.db #0x10	; 16
	.db #0x10	; 16
	.db #0x10	; 16
	.db #0x10	; 16
	.db #0x00	; 0
	.db #0x00	; 0
	.db #0x00	; 0
	.db #0x00	; 0
	.db #0x00	; 0
	.db #0x00	; 0
	.db #0x00	; 0
	.db #0x01	; 1
	.db #0x01	; 1
	.db #0x01	; 1
	.db #0x01	; 1
	.db #0x01	; 1
	.db #0x01	; 1
	.db #0x01	; 1
	.db #0x01	; 1
	.db #0x01	; 1
	.db #0x01	; 1
	.db #0x01	; 1
	.db #0x01	; 1
	.db #0x01	; 1
	.db #0x01	; 1
	.db #0x01	; 1
	.db #0x01	; 1
	.db #0x01	; 1
	.db #0x01	; 1
	.db #0x01	; 1
	.db #0x01	; 1
	.db #0x01	; 1
__xinit__gameoverTiles:
	.db #0xff	; 255
	.db #0xff	; 255
	.db #0xff	; 255
	.db #0xff	; 255
	.db #0xff	; 255
	.db #0xff	; 255
	.db #0xff	; 255
	.db #0xff	; 255
	.db #0xff	; 255
	.db #0xff	; 255
	.db #0xff	; 255
	.db #0xff	; 255
	.db #0xff	; 255
	.db #0xff	; 255
	.db #0xff	; 255
	.db #0xff	; 255
	.db #0xff	; 255
	.db #0xff	; 255
	.db #0xff	; 255
	.db #0xff	; 255
	.db #0xff	; 255
	.db #0xff	; 255
	.db #0xff	; 255
	.db #0xff	; 255
	.db #0xff	; 255
	.db #0xff	; 255
	.db #0xff	; 255
	.db #0xff	; 255
	.db #0xff	; 255
	.db #0xff	; 255
	.db #0xff	; 255
	.db #0xff	; 255
	.db #0xff	; 255
	.db #0xff	; 255
	.db #0xff	; 255
	.db #0xff	; 255
	.db #0xff	; 255
	.db #0xff	; 255
	.db #0xff	; 255
	.db #0xff	; 255
	.db #0xff	; 255
	.db #0xff	; 255
	.db #0xff	; 255
	.db #0xff	; 255
	.db #0xff	; 255
	.db #0xff	; 255
	.db #0xff	; 255
	.db #0xff	; 255
	.db #0xff	; 255
	.db #0xff	; 255
	.db #0xff	; 255
	.db #0xff	; 255
	.db #0xff	; 255
	.db #0xff	; 255
	.db #0xff	; 255
	.db #0xff	; 255
	.db #0xff	; 255
	.db #0xff	; 255
	.db #0xff	; 255
	.db #0xff	; 255
	.db #0xff	; 255
	.db #0xff	; 255
	.db #0xff	; 255
	.db #0xff	; 255
	.db #0xff	; 255
	.db #0xff	; 255
	.db #0xff	; 255
	.db #0xff	; 255
	.db #0xff	; 255
	.db #0xff	; 255
	.db #0xff	; 255
	.db #0xff	; 255
	.db #0xff	; 255
	.db #0xff	; 255
	.db #0xff	; 255
	.db #0xff	; 255
	.db #0xff	; 255
	.db #0xff	; 255
	.db #0xff	; 255
	.db #0xff	; 255
	.db #0xff	; 255
	.db #0xff	; 255
	.db #0xff	; 255
	.db #0xff	; 255
	.db #0xff	; 255
	.db #0xff	; 255
	.db #0xff	; 255
	.db #0xff	; 255
	.db #0xff	; 255
	.db #0xff	; 255
	.db #0xff	; 255
	.db #0xff	; 255
	.db #0xff	; 255
	.db #0xff	; 255
	.db #0xff	; 255
	.db #0xff	; 255
	.db #0xff	; 255
	.db #0xff	; 255
	.db #0xff	; 255
	.db #0xff	; 255
	.db #0xff	; 255
	.db #0xff	; 255
	.db #0xff	; 255
	.db #0xff	; 255
	.db #0xff	; 255
	.db #0xff	; 255
	.db #0xff	; 255
	.db #0xff	; 255
	.db #0xff	; 255
	.db #0xff	; 255
	.db #0xff	; 255
	.db #0xff	; 255
	.db #0xff	; 255
	.db #0xff	; 255
	.db #0xff	; 255
	.db #0xff	; 255
	.db #0xff	; 255
	.db #0xff	; 255
	.db #0xff	; 255
	.db #0xff	; 255
	.db #0xff	; 255
	.db #0xff	; 255
	.db #0xff	; 255
	.db #0xff	; 255
	.db #0xff	; 255
	.db #0xff	; 255
	.db #0xff	; 255
	.db #0xff	; 255
	.db #0xff	; 255
	.db #0xff	; 255
	.db #0xff	; 255
	.db #0xff	; 255
	.db #0xff	; 255
	.db #0xff	; 255
	.db #0xff	; 255
	.db #0xff	; 255
	.db #0xff	; 255
	.db #0xff	; 255
	.db #0xff	; 255
	.db #0xff	; 255
	.db #0xff	; 255
	.db #0xff	; 255
	.db #0xff	; 255
	.db #0xff	; 255
	.db #0xff	; 255
	.db #0xff	; 255
	.db #0xff	; 255
	.db #0xff	; 255
	.db #0xff	; 255
	.db #0xff	; 255
	.db #0xff	; 255
	.db #0xff	; 255
	.db #0xff	; 255
	.db #0xff	; 255
	.db #0xff	; 255
	.db #0xff	; 255
	.db #0xff	; 255
	.db #0xff	; 255
	.db #0xff	; 255
	.db #0xff	; 255
	.db #0xff	; 255
	.db #0xff	; 255
	.db #0xff	; 255
	.db #0xff	; 255
	.db #0xff	; 255
	.db #0xff	; 255
	.db #0xff	; 255
	.db #0xff	; 255
	.db #0xff	; 255
	.db #0xff	; 255
	.db #0xff	; 255
	.db #0xff	; 255
	.db #0xff	; 255
	.db #0xff	; 255
	.db #0xff	; 255
	.db #0xff	; 255
	.db #0xff	; 255
	.db #0xff	; 255
	.db #0xff	; 255
	.db #0xff	; 255
	.db #0xff	; 255
	.db #0xff	; 255
	.db #0xff	; 255
	.db #0xff	; 255
	.db #0xff	; 255
	.db #0xff	; 255
	.db #0xff	; 255
	.db #0xff	; 255
	.db #0xff	; 255
	.db #0xff	; 255
	.db #0xff	; 255
	.db #0xff	; 255
	.db #0xff	; 255
	.db #0xff	; 255
	.db #0xff	; 255
	.db #0xff	; 255
	.db #0xff	; 255
	.db #0xff	; 255
	.db #0xff	; 255
	.db #0xff	; 255
	.db #0xff	; 255
	.db #0xff	; 255
	.db #0xff	; 255
	.db #0xff	; 255
	.db #0xff	; 255
	.db #0xff	; 255
	.db #0xff	; 255
	.db #0xff	; 255
	.db #0xff	; 255
	.db #0xff	; 255
	.db #0xff	; 255
	.db #0xff	; 255
	.db #0xff	; 255
	.db #0xff	; 255
	.db #0xff	; 255
	.db #0xff	; 255
	.db #0xff	; 255
	.db #0xff	; 255
	.db #0xff	; 255
	.db #0xff	; 255
	.db #0xff	; 255
	.db #0xff	; 255
	.db #0xff	; 255
	.db #0xff	; 255
	.db #0xff	; 255
	.db #0xff	; 255
	.db #0xff	; 255
	.db #0xff	; 255
	.db #0xff	; 255
	.db #0xff	; 255
	.db #0xff	; 255
	.db #0xff	; 255
	.db #0xff	; 255
	.db #0xff	; 255
	.db #0xff	; 255
	.db #0xff	; 255
	.db #0xff	; 255
	.db #0xff	; 255
	.db #0xff	; 255
	.db #0xff	; 255
	.db #0xff	; 255
	.db #0xff	; 255
	.db #0xff	; 255
	.db #0xff	; 255
	.db #0xff	; 255
	.db #0xff	; 255
	.db #0xff	; 255
	.db #0xff	; 255
	.db #0xff	; 255
	.db #0xff	; 255
	.db #0xff	; 255
	.db #0xff	; 255
	.db #0xff	; 255
	.db #0xff	; 255
	.db #0xff	; 255
	.db #0xff	; 255
	.db #0xff	; 255
	.db #0xff	; 255
	.db #0xff	; 255
	.db #0xff	; 255
	.db #0xff	; 255
	.db #0xff	; 255
	.db #0xff	; 255
	.db #0xff	; 255
	.db #0xff	; 255
	.db #0xff	; 255
	.db #0xff	; 255
	.db #0xff	; 255
	.db #0xff	; 255
	.db #0xff	; 255
	.db #0xff	; 255
	.db #0xff	; 255
	.db #0xff	; 255
	.db #0xff	; 255
	.db #0xff	; 255
	.db #0xff	; 255
	.db #0xff	; 255
	.db #0xff	; 255
	.db #0xff	; 255
	.db #0xff	; 255
	.db #0xff	; 255
	.db #0xff	; 255
	.db #0xff	; 255
	.db #0xff	; 255
	.db #0xff	; 255
	.db #0xff	; 255
	.db #0xff	; 255
	.db #0xff	; 255
	.db #0xff	; 255
	.db #0xff	; 255
	.db #0xff	; 255
	.db #0xff	; 255
	.db #0xff	; 255
	.db #0xff	; 255
	.db #0xff	; 255
	.db #0xff	; 255
	.db #0xff	; 255
	.db #0xff	; 255
	.db #0xff	; 255
	.db #0xff	; 255
	.db #0xff	; 255
	.db #0xff	; 255
	.db #0xff	; 255
	.db #0xff	; 255
	.db #0xff	; 255
	.db #0xff	; 255
	.db #0xff	; 255
	.db #0xff	; 255
	.db #0xff	; 255
	.db #0xff	; 255
	.db #0xff	; 255
	.db #0xff	; 255
	.db #0xff	; 255
	.db #0xff	; 255
	.db #0xff	; 255
	.db #0xff	; 255
	.db #0xff	; 255
	.db #0xff	; 255
	.db #0xff	; 255
	.db #0xff	; 255
	.db #0xff	; 255
	.db #0xff	; 255
	.db #0xff	; 255
	.db #0xff	; 255
	.db #0xff	; 255
	.db #0xff	; 255
	.db #0xff	; 255
	.db #0xff	; 255
	.db #0xff	; 255
	.db #0xff	; 255
	.db #0xff	; 255
	.db #0xff	; 255
	.db #0xff	; 255
	.db #0xff	; 255
	.db #0xff	; 255
	.db #0xff	; 255
	.db #0xff	; 255
	.db #0xff	; 255
	.db #0xff	; 255
	.db #0xff	; 255
	.db #0xff	; 255
	.db #0xff	; 255
	.db #0xff	; 255
	.db #0xff	; 255
	.db #0xff	; 255
	.db #0xff	; 255
	.db #0xff	; 255
	.db #0xff	; 255
	.db #0xff	; 255
	.db #0xff	; 255
	.db #0xff	; 255
	.db #0xff	; 255
	.db #0xff	; 255
	.db #0xff	; 255
	.db #0xff	; 255
	.db #0xff	; 255
	.db #0xff	; 255
	.db #0xff	; 255
	.db #0xff	; 255
	.db #0xff	; 255
	.db #0xff	; 255
	.db #0xff	; 255
	.db #0xff	; 255
	.db #0xff	; 255
	.db #0xff	; 255
	.db #0xff	; 255
	.db #0xff	; 255
	.db #0xff	; 255
	.db #0xff	; 255
	.db #0xff	; 255
	.db #0xff	; 255
	.db #0xff	; 255
	.db #0xff	; 255
	.db #0xff	; 255
	.db #0xff	; 255
	.db #0xff	; 255
	.db #0xff	; 255
	.db #0xff	; 255
	.db #0xfe	; 254
	.db #0xfe	; 254
	.db #0xf8	; 248
	.db #0xf8	; 248
	.db #0xf0	; 240
	.db #0xf0	; 240
	.db #0xff	; 255
	.db #0xff	; 255
	.db #0xf0	; 240
	.db #0xf0	; 240
	.db #0xe0	; 224
	.db #0xe0	; 224
	.db #0x80	; 128
	.db #0x80	; 128
	.db #0x00	; 0
	.db #0x00	; 0
	.db #0x00	; 0
	.db #0x00	; 0
	.db #0x00	; 0
	.db #0x00	; 0
	.db #0x00	; 0
	.db #0x00	; 0
	.db #0xff	; 255
	.db #0xff	; 255
	.db #0x1f	; 31
	.db #0x1f	; 31
	.db #0x0f	; 15
	.db #0x0f	; 15
	.db #0x03	; 3
	.db #0x03	; 3
	.db #0x01	; 1
	.db #0x21	; 33
	.db #0x00	; 0
	.db #0x20	; 32
	.db #0x00	; 0
	.db #0x00	; 0
	.db #0x00	; 0
	.db #0x00	; 0
	.db #0xff	; 255
	.db #0xff	; 255
	.db #0xff	; 255
	.db #0xff	; 255
	.db #0xff	; 255
	.db #0xff	; 255
	.db #0xff	; 255
	.db #0xff	; 255
	.db #0xff	; 255
	.db #0xff	; 255
	.db #0xff	; 255
	.db #0xff	; 255
	.db #0x7f	; 127
	.db #0x7f	; 127
	.db #0x3f	; 63
	.db #0x3f	; 63
	.db #0xff	; 255
	.db #0xff	; 255
	.db #0xff	; 255
	.db #0xff	; 255
	.db #0xff	; 255
	.db #0xff	; 255
	.db #0xff	; 255
	.db #0xff	; 255
	.db #0xff	; 255
	.db #0xff	; 255
	.db #0xff	; 255
	.db #0xff	; 255
	.db #0xff	; 255
	.db #0xff	; 255
	.db #0xff	; 255
	.db #0xff	; 255
	.db #0xff	; 255
	.db #0xff	; 255
	.db #0xff	; 255
	.db #0xff	; 255
	.db #0xff	; 255
	.db #0xff	; 255
	.db #0xff	; 255
	.db #0xff	; 255
	.db #0xff	; 255
	.db #0xff	; 255
	.db #0xff	; 255
	.db #0xff	; 255
	.db #0xff	; 255
	.db #0xff	; 255
	.db #0xff	; 255
	.db #0xff	; 255
	.db #0xff	; 255
	.db #0xff	; 255
	.db #0xff	; 255
	.db #0xff	; 255
	.db #0xff	; 255
	.db #0xff	; 255
	.db #0xff	; 255
	.db #0xff	; 255
	.db #0xff	; 255
	.db #0xff	; 255
	.db #0xff	; 255
	.db #0xff	; 255
	.db #0xff	; 255
	.db #0xff	; 255
	.db #0xff	; 255
	.db #0xff	; 255
	.db #0xff	; 255
	.db #0xff	; 255
	.db #0xff	; 255
	.db #0xff	; 255
	.db #0xff	; 255
	.db #0xff	; 255
	.db #0xff	; 255
	.db #0xff	; 255
	.db #0xff	; 255
	.db #0xff	; 255
	.db #0xff	; 255
	.db #0xff	; 255
	.db #0xff	; 255
	.db #0xff	; 255
	.db #0xff	; 255
	.db #0xff	; 255
	.db #0xff	; 255
	.db #0xff	; 255
	.db #0xff	; 255
	.db #0xff	; 255
	.db #0xff	; 255
	.db #0xff	; 255
	.db #0xff	; 255
	.db #0xff	; 255
	.db #0xff	; 255
	.db #0xff	; 255
	.db #0xff	; 255
	.db #0xff	; 255
	.db #0xff	; 255
	.db #0xff	; 255
	.db #0xff	; 255
	.db #0xff	; 255
	.db #0xff	; 255
	.db #0xff	; 255
	.db #0xff	; 255
	.db #0xff	; 255
	.db #0xff	; 255
	.db #0xff	; 255
	.db #0xff	; 255
	.db #0xff	; 255
	.db #0xff	; 255
	.db #0xff	; 255
	.db #0xff	; 255
	.db #0xff	; 255
	.db #0xff	; 255
	.db #0xff	; 255
	.db #0xff	; 255
	.db #0xff	; 255
	.db #0xe0	; 224
	.db #0xe0	; 224
	.db #0xc0	; 192
	.db #0xc0	; 192
	.db #0x80	; 128
	.db #0x80	; 128
	.db #0x80	; 128
	.db #0x8f	; 143
	.db #0x00	; 0
	.db #0x18	; 24
	.db #0x00	; 0
	.db #0x00	; 0
	.db #0x00	; 0
	.db #0x00	; 0
	.db #0x80	; 128
	.db #0x80	; 128
	.db #0x00	; 0
	.db #0x38	; 56	'8'
	.db #0x00	; 0
	.db #0x08	; 8
	.db #0x00	; 0
	.db #0x00	; 0
	.db #0x00	; 0
	.db #0x00	; 0
	.db #0x00	; 0
	.db #0x00	; 0
	.db #0x00	; 0
	.db #0x00	; 0
	.db #0x40	; 64
	.db #0x40	; 64
	.db #0xe0	; 224
	.db #0xe0	; 224
	.db #0x00	; 0
	.db #0x00	; 0
	.db #0x00	; 0
	.db #0x00	; 0
	.db #0x00	; 0
	.db #0x00	; 0
	.db #0x00	; 0
	.db #0x00	; 0
	.db #0x00	; 0
	.db #0x01	; 1
	.db #0x00	; 0
	.db #0x01	; 1
	.db #0x40	; 64
	.db #0x40	; 64
	.db #0xe0	; 224
	.db #0xe0	; 224
	.db #0x1f	; 31
	.db #0x1f	; 31
	.db #0x0f	; 15
	.db #0x0f	; 15
	.db #0x07	; 7
	.db #0x07	; 7
	.db #0x07	; 7
	.db #0x07	; 7
	.db #0x07	; 7
	.db #0x07	; 7
	.db #0x07	; 7
	.db #0x87	; 135
	.db #0x07	; 7
	.db #0x07	; 7
	.db #0x07	; 7
	.db #0x07	; 7
	.db #0xff	; 255
	.db #0xff	; 255
	.db #0xff	; 255
	.db #0xff	; 255
	.db #0xff	; 255
	.db #0xff	; 255
	.db #0xff	; 255
	.db #0xff	; 255
	.db #0xff	; 255
	.db #0xff	; 255
	.db #0xff	; 255
	.db #0xff	; 255
	.db #0xff	; 255
	.db #0xff	; 255
	.db #0xff	; 255
	.db #0xff	; 255
	.db #0xff	; 255
	.db #0xff	; 255
	.db #0xff	; 255
	.db #0xff	; 255
	.db #0xff	; 255
	.db #0xff	; 255
	.db #0xff	; 255
	.db #0xff	; 255
	.db #0xff	; 255
	.db #0xff	; 255
	.db #0xff	; 255
	.db #0xff	; 255
	.db #0xff	; 255
	.db #0xff	; 255
	.db #0xff	; 255
	.db #0xff	; 255
	.db #0xff	; 255
	.db #0xff	; 255
	.db #0xff	; 255
	.db #0xff	; 255
	.db #0xff	; 255
	.db #0xff	; 255
	.db #0xff	; 255
	.db #0xff	; 255
	.db #0xff	; 255
	.db #0xff	; 255
	.db #0xff	; 255
	.db #0xff	; 255
	.db #0xff	; 255
	.db #0xff	; 255
	.db #0xff	; 255
	.db #0xff	; 255
	.db #0xff	; 255
	.db #0xff	; 255
	.db #0xff	; 255
	.db #0xff	; 255
	.db #0xff	; 255
	.db #0xff	; 255
	.db #0xff	; 255
	.db #0xff	; 255
	.db #0xff	; 255
	.db #0xff	; 255
	.db #0xff	; 255
	.db #0xff	; 255
	.db #0xff	; 255
	.db #0xff	; 255
	.db #0xff	; 255
	.db #0xff	; 255
	.db #0xff	; 255
	.db #0xff	; 255
	.db #0xff	; 255
	.db #0xff	; 255
	.db #0xff	; 255
	.db #0xff	; 255
	.db #0xff	; 255
	.db #0xff	; 255
	.db #0xff	; 255
	.db #0xff	; 255
	.db #0xff	; 255
	.db #0xff	; 255
	.db #0xff	; 255
	.db #0xff	; 255
	.db #0xff	; 255
	.db #0xff	; 255
	.db #0xff	; 255
	.db #0xff	; 255
	.db #0xff	; 255
	.db #0xff	; 255
	.db #0xff	; 255
	.db #0xff	; 255
	.db #0xff	; 255
	.db #0xff	; 255
	.db #0xff	; 255
	.db #0xff	; 255
	.db #0xff	; 255
	.db #0xff	; 255
	.db #0xff	; 255
	.db #0xff	; 255
	.db #0xff	; 255
	.db #0xff	; 255
	.db #0x81	; 129
	.db #0x81	; 129
	.db #0x81	; 129
	.db #0x81	; 129
	.db #0x81	; 129
	.db #0x81	; 129
	.db #0x81	; 129
	.db #0x81	; 129
	.db #0xc1	; 193
	.db #0xc1	; 193
	.db #0xc1	; 193
	.db #0xc1	; 193
	.db #0xc0	; 192
	.db #0xd0	; 208
	.db #0xc0	; 192
	.db #0xd0	; 208
	.db #0xf1	; 241
	.db #0xf1	; 241
	.db #0xf1	; 241
	.db #0xf1	; 241
	.db #0xf1	; 241
	.db #0xf1	; 241
	.db #0xf1	; 241
	.db #0xf1	; 241
	.db #0xf1	; 241
	.db #0xf1	; 241
	.db #0xf1	; 241
	.db #0xf1	; 241
	.db #0xe0	; 224
	.db #0xe0	; 224
	.db #0x40	; 64
	.db #0x40	; 64
	.db #0xf0	; 240
	.db #0xf0	; 240
	.db #0xf0	; 240
	.db #0xf0	; 240
	.db #0xf0	; 240
	.db #0xf0	; 240
	.db #0xf0	; 240
	.db #0xf0	; 240
	.db #0xf0	; 240
	.db #0xf2	; 242
	.db #0xf0	; 240
	.db #0xf6	; 246
	.db #0xe0	; 224
	.db #0xec	; 236
	.db #0x40	; 64
	.db #0x44	; 68	'D'
	.db #0x0f	; 15
	.db #0x0f	; 15
	.db #0x0f	; 15
	.db #0x0f	; 15
	.db #0x0f	; 15
	.db #0x0f	; 15
	.db #0x0f	; 15
	.db #0x2f	; 47
	.db #0x0f	; 15
	.db #0x2f	; 47
	.db #0x1f	; 31
	.db #0x1f	; 31
	.db #0x1f	; 31
	.db #0x5f	; 95
	.db #0x1f	; 31
	.db #0x5f	; 95
	.db #0xff	; 255
	.db #0xff	; 255
	.db #0xff	; 255
	.db #0xff	; 255
	.db #0xff	; 255
	.db #0xff	; 255
	.db #0xff	; 255
	.db #0xff	; 255
	.db #0xff	; 255
	.db #0xff	; 255
	.db #0xff	; 255
	.db #0xff	; 255
	.db #0xff	; 255
	.db #0xff	; 255
	.db #0xff	; 255
	.db #0xff	; 255
	.db #0xff	; 255
	.db #0xff	; 255
	.db #0xff	; 255
	.db #0xff	; 255
	.db #0xff	; 255
	.db #0xff	; 255
	.db #0xff	; 255
	.db #0xff	; 255
	.db #0xff	; 255
	.db #0xff	; 255
	.db #0xff	; 255
	.db #0xff	; 255
	.db #0xff	; 255
	.db #0xff	; 255
	.db #0xff	; 255
	.db #0xff	; 255
	.db #0xff	; 255
	.db #0xff	; 255
	.db #0xff	; 255
	.db #0xff	; 255
	.db #0xff	; 255
	.db #0xff	; 255
	.db #0xff	; 255
	.db #0xff	; 255
	.db #0xff	; 255
	.db #0xff	; 255
	.db #0xff	; 255
	.db #0xff	; 255
	.db #0xff	; 255
	.db #0xff	; 255
	.db #0xff	; 255
	.db #0xff	; 255
	.db #0xff	; 255
	.db #0xff	; 255
	.db #0xff	; 255
	.db #0xff	; 255
	.db #0xff	; 255
	.db #0xff	; 255
	.db #0xff	; 255
	.db #0xff	; 255
	.db #0xff	; 255
	.db #0xff	; 255
	.db #0xff	; 255
	.db #0xff	; 255
	.db #0xff	; 255
	.db #0xff	; 255
	.db #0xff	; 255
	.db #0xff	; 255
	.db #0xff	; 255
	.db #0xff	; 255
	.db #0xff	; 255
	.db #0xff	; 255
	.db #0xff	; 255
	.db #0xff	; 255
	.db #0xff	; 255
	.db #0xff	; 255
	.db #0xff	; 255
	.db #0xff	; 255
	.db #0xff	; 255
	.db #0xff	; 255
	.db #0xff	; 255
	.db #0xff	; 255
	.db #0xff	; 255
	.db #0xff	; 255
	.db #0xff	; 255
	.db #0xff	; 255
	.db #0xff	; 255
	.db #0xff	; 255
	.db #0xff	; 255
	.db #0xff	; 255
	.db #0xff	; 255
	.db #0xff	; 255
	.db #0xff	; 255
	.db #0xff	; 255
	.db #0xff	; 255
	.db #0xff	; 255
	.db #0xff	; 255
	.db #0xff	; 255
	.db #0xff	; 255
	.db #0xff	; 255
	.db #0xc0	; 192
	.db #0xd0	; 208
	.db #0xc0	; 192
	.db #0xd8	; 216
	.db #0xe0	; 224
	.db #0xe8	; 232
	.db #0xe0	; 224
	.db #0xec	; 236
	.db #0xe0	; 224
	.db #0xec	; 236
	.db #0xe0	; 224
	.db #0xec	; 236
	.db #0xe0	; 224
	.db #0xec	; 236
	.db #0xe0	; 224
	.db #0xec	; 236
	.db #0x08	; 8
	.db #0x08	; 8
	.db #0x08	; 8
	.db #0x08	; 8
	.db #0x08	; 8
	.db #0x08	; 8
	.db #0x1c	; 28
	.db #0x1c	; 28
	.db #0x1c	; 28
	.db #0x1c	; 28
	.db #0x1c	; 28
	.db #0x1c	; 28
	.db #0x1c	; 28
	.db #0x1c	; 28
	.db #0x36	; 54	'6'
	.db #0x36	; 54	'6'
	.db #0x00	; 0
	.db #0x1c	; 28
	.db #0x00	; 0
	.db #0x28	; 40
	.db #0x00	; 0
	.db #0x48	; 72	'H'
	.db #0x00	; 0
	.db #0x49	; 73	'I'
	.db #0x00	; 0
	.db #0x01	; 1
	.db #0x00	; 0
	.db #0x01	; 1
	.db #0x00	; 0
	.db #0x01	; 1
	.db #0x00	; 0
	.db #0x01	; 1
	.db #0x1f	; 31
	.db #0xdf	; 223
	.db #0x1f	; 31
	.db #0xdf	; 223
	.db #0x1f	; 31
	.db #0xdf	; 223
	.db #0x3f	; 63
	.db #0xbf	; 191
	.db #0x3f	; 63
	.db #0xbf	; 191
	.db #0x3f	; 63
	.db #0xbf	; 191
	.db #0x3f	; 63
	.db #0xbf	; 191
	.db #0x3f	; 63
	.db #0xbf	; 191
	.db #0xff	; 255
	.db #0xff	; 255
	.db #0xff	; 255
	.db #0xff	; 255
	.db #0xff	; 255
	.db #0xff	; 255
	.db #0xff	; 255
	.db #0xff	; 255
	.db #0xff	; 255
	.db #0xff	; 255
	.db #0xff	; 255
	.db #0xff	; 255
	.db #0xff	; 255
	.db #0xff	; 255
	.db #0xff	; 255
	.db #0xff	; 255
	.db #0xff	; 255
	.db #0xff	; 255
	.db #0xff	; 255
	.db #0xff	; 255
	.db #0xff	; 255
	.db #0xff	; 255
	.db #0xff	; 255
	.db #0xff	; 255
	.db #0xff	; 255
	.db #0xff	; 255
	.db #0xff	; 255
	.db #0xff	; 255
	.db #0xff	; 255
	.db #0xff	; 255
	.db #0xff	; 255
	.db #0xff	; 255
	.db #0xff	; 255
	.db #0xff	; 255
	.db #0xff	; 255
	.db #0xff	; 255
	.db #0xff	; 255
	.db #0xff	; 255
	.db #0xff	; 255
	.db #0xff	; 255
	.db #0xff	; 255
	.db #0xff	; 255
	.db #0xff	; 255
	.db #0xff	; 255
	.db #0xff	; 255
	.db #0xff	; 255
	.db #0xff	; 255
	.db #0xff	; 255
	.db #0xff	; 255
	.db #0xff	; 255
	.db #0xff	; 255
	.db #0xff	; 255
	.db #0xff	; 255
	.db #0xff	; 255
	.db #0xff	; 255
	.db #0xff	; 255
	.db #0xff	; 255
	.db #0xff	; 255
	.db #0xff	; 255
	.db #0xff	; 255
	.db #0xff	; 255
	.db #0xff	; 255
	.db #0xff	; 255
	.db #0xff	; 255
	.db #0xff	; 255
	.db #0xff	; 255
	.db #0xff	; 255
	.db #0xff	; 255
	.db #0xff	; 255
	.db #0xff	; 255
	.db #0xff	; 255
	.db #0xff	; 255
	.db #0xff	; 255
	.db #0xff	; 255
	.db #0xff	; 255
	.db #0xff	; 255
	.db #0xff	; 255
	.db #0xff	; 255
	.db #0xff	; 255
	.db #0xff	; 255
	.db #0xff	; 255
	.db #0xff	; 255
	.db #0xff	; 255
	.db #0xff	; 255
	.db #0xff	; 255
	.db #0xff	; 255
	.db #0xff	; 255
	.db #0xff	; 255
	.db #0xff	; 255
	.db #0xff	; 255
	.db #0xff	; 255
	.db #0xff	; 255
	.db #0xff	; 255
	.db #0xff	; 255
	.db #0xff	; 255
	.db #0xff	; 255
	.db #0xf0	; 240
	.db #0xf4	; 244
	.db #0xf0	; 240
	.db #0xf4	; 244
	.db #0xf0	; 240
	.db #0xf0	; 240
	.db #0xf8	; 248
	.db #0xf8	; 248
	.db #0xf8	; 248
	.db #0xf8	; 248
	.db #0xfc	; 252
	.db #0xfc	; 252
	.db #0xf8	; 248
	.db #0xf8	; 248
	.db #0xf8	; 248
	.db #0xf8	; 248
	.db #0x22	; 34
	.db #0x22	; 34
	.db #0x00	; 0
	.db #0x00	; 0
	.db #0x00	; 0
	.db #0x00	; 0
	.db #0x00	; 0
	.db #0x00	; 0
	.db #0x00	; 0
	.db #0x00	; 0
	.db #0x00	; 0
	.db #0x00	; 0
	.db #0x00	; 0
	.db #0x00	; 0
	.db #0x00	; 0
	.db #0x00	; 0
	.db #0x00	; 0
	.db #0x01	; 1
	.db #0x00	; 0
	.db #0x01	; 1
	.db #0x00	; 0
	.db #0x00	; 0
	.db #0x00	; 0
	.db #0x00	; 0
	.db #0x00	; 0
	.db #0x00	; 0
	.db #0x00	; 0
	.db #0x00	; 0
	.db #0x04	; 4
	.db #0x04	; 4
	.db #0x00	; 0
	.db #0x00	; 0
	.db #0x7f	; 127
	.db #0x7f	; 127
	.db #0x7f	; 127
	.db #0x7f	; 127
	.db #0x7f	; 127
	.db #0x7f	; 127
	.db #0xff	; 255
	.db #0xff	; 255
	.db #0xff	; 255
	.db #0xff	; 255
	.db #0xff	; 255
	.db #0xff	; 255
	.db #0xff	; 255
	.db #0xff	; 255
	.db #0xff	; 255
	.db #0xff	; 255
	.db #0xff	; 255
	.db #0xff	; 255
	.db #0xff	; 255
	.db #0xff	; 255
	.db #0xff	; 255
	.db #0xff	; 255
	.db #0xff	; 255
	.db #0xff	; 255
	.db #0xff	; 255
	.db #0xff	; 255
	.db #0xff	; 255
	.db #0xff	; 255
	.db #0xff	; 255
	.db #0xff	; 255
	.db #0xff	; 255
	.db #0xff	; 255
	.db #0xff	; 255
	.db #0xff	; 255
	.db #0xff	; 255
	.db #0xff	; 255
	.db #0xff	; 255
	.db #0xff	; 255
	.db #0xff	; 255
	.db #0xff	; 255
	.db #0xff	; 255
	.db #0xff	; 255
	.db #0xff	; 255
	.db #0xff	; 255
	.db #0xff	; 255
	.db #0xff	; 255
	.db #0xff	; 255
	.db #0xff	; 255
	.db #0xff	; 255
	.db #0xff	; 255
	.db #0xff	; 255
	.db #0xff	; 255
	.db #0xff	; 255
	.db #0xff	; 255
	.db #0xff	; 255
	.db #0xff	; 255
	.db #0xff	; 255
	.db #0xff	; 255
	.db #0xff	; 255
	.db #0xff	; 255
	.db #0xff	; 255
	.db #0xff	; 255
	.db #0xff	; 255
	.db #0xff	; 255
	.db #0xff	; 255
	.db #0xff	; 255
	.db #0xff	; 255
	.db #0xff	; 255
	.db #0xff	; 255
	.db #0xff	; 255
	.db #0xff	; 255
	.db #0xff	; 255
	.db #0xff	; 255
	.db #0xff	; 255
	.db #0xff	; 255
	.db #0xff	; 255
	.db #0xff	; 255
	.db #0xff	; 255
	.db #0xff	; 255
	.db #0xff	; 255
	.db #0xff	; 255
	.db #0xff	; 255
	.db #0xff	; 255
	.db #0xff	; 255
	.db #0xff	; 255
	.db #0xff	; 255
	.db #0xff	; 255
	.db #0xff	; 255
	.db #0xff	; 255
	.db #0xff	; 255
	.db #0xff	; 255
	.db #0xff	; 255
	.db #0xff	; 255
	.db #0xff	; 255
	.db #0xff	; 255
	.db #0xff	; 255
	.db #0xff	; 255
	.db #0xff	; 255
	.db #0xff	; 255
	.db #0xff	; 255
	.db #0xff	; 255
	.db #0xff	; 255
	.db #0xff	; 255
	.db #0xff	; 255
	.db #0xff	; 255
	.db #0xff	; 255
	.db #0xff	; 255
	.db #0xff	; 255
	.db #0xff	; 255
	.db #0xff	; 255
	.db #0xff	; 255
	.db #0xff	; 255
	.db #0xf8	; 248
	.db #0xf8	; 248
	.db #0xf8	; 248
	.db #0xf8	; 248
	.db #0xf9	; 249
	.db #0xf9	; 249
	.db #0xff	; 255
	.db #0xff	; 255
	.db #0xff	; 255
	.db #0xff	; 255
	.db #0xff	; 255
	.db #0xff	; 255
	.db #0xff	; 255
	.db #0xff	; 255
	.db #0xff	; 255
	.db #0xff	; 255
	.db #0x48	; 72	'H'
	.db #0x48	; 72	'H'
	.db #0x09	; 9
	.db #0x09	; 9
	.db #0x99	; 153
	.db #0x99	; 153
	.db #0xff	; 255
	.db #0xff	; 255
	.db #0xff	; 255
	.db #0xff	; 255
	.db #0xff	; 255
	.db #0xff	; 255
	.db #0xff	; 255
	.db #0xff	; 255
	.db #0xff	; 255
	.db #0xff	; 255
	.db #0x00	; 0
	.db #0x00	; 0
	.db #0x3c	; 60
	.db #0x3c	; 60
	.db #0x3c	; 60
	.db #0x3c	; 60
	.db #0x3f	; 63
	.db #0x3f	; 63
	.db #0xff	; 255
	.db #0xff	; 255
	.db #0xff	; 255
	.db #0xff	; 255
	.db #0xff	; 255
	.db #0xff	; 255
	.db #0xff	; 255
	.db #0xff	; 255
	.db #0xff	; 255
	.db #0xff	; 255
	.db #0xff	; 255
	.db #0xff	; 255
	.db #0xff	; 255
	.db #0xff	; 255
	.db #0xff	; 255
	.db #0xff	; 255
	.db #0xff	; 255
	.db #0xff	; 255
	.db #0xff	; 255
	.db #0xff	; 255
	.db #0xff	; 255
	.db #0xff	; 255
	.db #0xff	; 255
	.db #0xff	; 255
	.db #0xff	; 255
	.db #0xff	; 255
	.db #0xff	; 255
	.db #0xff	; 255
	.db #0xff	; 255
	.db #0xff	; 255
	.db #0xff	; 255
	.db #0xff	; 255
	.db #0xff	; 255
	.db #0xff	; 255
	.db #0xff	; 255
	.db #0xff	; 255
	.db #0xff	; 255
	.db #0xff	; 255
	.db #0xff	; 255
	.db #0xff	; 255
	.db #0xff	; 255
	.db #0xff	; 255
	.db #0xff	; 255
	.db #0xff	; 255
	.db #0xff	; 255
	.db #0xff	; 255
	.db #0xff	; 255
	.db #0xff	; 255
	.db #0xff	; 255
	.db #0xff	; 255
	.db #0xff	; 255
	.db #0xff	; 255
	.db #0xff	; 255
	.db #0xff	; 255
	.db #0xff	; 255
	.db #0xff	; 255
	.db #0xff	; 255
	.db #0xff	; 255
	.db #0xff	; 255
	.db #0xff	; 255
	.db #0xff	; 255
	.db #0xff	; 255
	.db #0xff	; 255
	.db #0xff	; 255
	.db #0xff	; 255
	.db #0xff	; 255
	.db #0xff	; 255
	.db #0xff	; 255
	.db #0xff	; 255
	.db #0xff	; 255
	.db #0xff	; 255
	.db #0xff	; 255
	.db #0xe1	; 225
	.db #0xff	; 255
	.db #0xcc	; 204
	.db #0xff	; 255
	.db #0xcc	; 204
	.db #0xff	; 255
	.db #0xcf	; 207
	.db #0xff	; 255
	.db #0xcf	; 207
	.db #0xff	; 255
	.db #0xc8	; 200
	.db #0xff	; 255
	.db #0xcc	; 204
	.db #0xff	; 255
	.db #0xcc	; 204
	.db #0xff	; 255
	.db #0xf3	; 243
	.db #0xff	; 255
	.db #0xe1	; 225
	.db #0xff	; 255
	.db #0xcc	; 204
	.db #0xff	; 255
	.db #0xcc	; 204
	.db #0xff	; 255
	.db #0xcc	; 204
	.db #0xff	; 255
	.db #0xc0	; 192
	.db #0xff	; 255
	.db #0xcc	; 204
	.db #0xff	; 255
	.db #0xcc	; 204
	.db #0xff	; 255
	.db #0xce	; 206
	.db #0xff	; 255
	.db #0xce	; 206
	.db #0xff	; 255
	.db #0xc4	; 196
	.db #0xff	; 255
	.db #0xca	; 202
	.db #0xff	; 255
	.db #0xca	; 202
	.db #0xff	; 255
	.db #0xca	; 202
	.db #0xff	; 255
	.db #0xce	; 206
	.db #0xff	; 255
	.db #0xce	; 206
	.db #0xff	; 255
	.db #0x40	; 64
	.db #0xff	; 255
	.db #0x4f	; 79	'O'
	.db #0xff	; 255
	.db #0x4f	; 79	'O'
	.db #0xff	; 255
	.db #0x4f	; 79	'O'
	.db #0xff	; 255
	.db #0x41	; 65	'A'
	.db #0xff	; 255
	.db #0x4f	; 79	'O'
	.db #0xff	; 255
	.db #0x4f	; 79	'O'
	.db #0xff	; 255
	.db #0x4f	; 79	'O'
	.db #0xff	; 255
	.db #0xff	; 255
	.db #0xff	; 255
	.db #0xff	; 255
	.db #0xff	; 255
	.db #0xff	; 255
	.db #0xff	; 255
	.db #0xff	; 255
	.db #0xff	; 255
	.db #0xff	; 255
	.db #0xff	; 255
	.db #0xff	; 255
	.db #0xff	; 255
	.db #0xff	; 255
	.db #0xff	; 255
	.db #0xff	; 255
	.db #0xff	; 255
	.db #0xc3	; 195
	.db #0xff	; 255
	.db #0x99	; 153
	.db #0xff	; 255
	.db #0x99	; 153
	.db #0xff	; 255
	.db #0x99	; 153
	.db #0xff	; 255
	.db #0x99	; 153
	.db #0xff	; 255
	.db #0x99	; 153
	.db #0xff	; 255
	.db #0x99	; 153
	.db #0xff	; 255
	.db #0x99	; 153
	.db #0xff	; 255
	.db #0x99	; 153
	.db #0xff	; 255
	.db #0x99	; 153
	.db #0xff	; 255
	.db #0x99	; 153
	.db #0xff	; 255
	.db #0x99	; 153
	.db #0xff	; 255
	.db #0x99	; 153
	.db #0xff	; 255
	.db #0x99	; 153
	.db #0xff	; 255
	.db #0x99	; 153
	.db #0xff	; 255
	.db #0xc3	; 195
	.db #0xff	; 255
	.db #0x81	; 129
	.db #0xff	; 255
	.db #0x9f	; 159
	.db #0xff	; 255
	.db #0x9f	; 159
	.db #0xff	; 255
	.db #0x9f	; 159
	.db #0xff	; 255
	.db #0x83	; 131
	.db #0xff	; 255
	.db #0x9f	; 159
	.db #0xff	; 255
	.db #0x9f	; 159
	.db #0xff	; 255
	.db #0x9f	; 159
	.db #0xff	; 255
	.db #0x83	; 131
	.db #0xff	; 255
	.db #0x99	; 153
	.db #0xff	; 255
	.db #0x99	; 153
	.db #0xff	; 255
	.db #0x99	; 153
	.db #0xff	; 255
	.db #0x83	; 131
	.db #0xff	; 255
	.db #0x93	; 147
	.db #0xff	; 255
	.db #0x99	; 153
	.db #0xff	; 255
	.db #0x99	; 153
	.db #0xff	; 255
	.db #0xe7	; 231
	.db #0xff	; 255
	.db #0xc3	; 195
	.db #0xff	; 255
	.db #0xc3	; 195
	.db #0xff	; 255
	.db #0xc3	; 195
	.db #0xff	; 255
	.db #0xe7	; 231
	.db #0xff	; 255
	.db #0xe7	; 231
	.db #0xff	; 255
	.db #0xff	; 255
	.db #0xff	; 255
	.db #0xe7	; 231
	.db #0xff	; 255
	.db #0xe0	; 224
	.db #0xff	; 255
	.db #0xff	; 255
	.db #0xff	; 255
	.db #0xff	; 255
	.db #0xff	; 255
	.db #0xff	; 255
	.db #0xff	; 255
	.db #0xff	; 255
	.db #0xff	; 255
	.db #0xff	; 255
	.db #0xff	; 255
	.db #0xff	; 255
	.db #0xff	; 255
	.db #0xff	; 255
	.db #0xff	; 255
	.db #0xcc	; 204
	.db #0xff	; 255
	.db #0xff	; 255
	.db #0xff	; 255
	.db #0xff	; 255
	.db #0xff	; 255
	.db #0xff	; 255
	.db #0xff	; 255
	.db #0xff	; 255
	.db #0xff	; 255
	.db #0xff	; 255
	.db #0xff	; 255
	.db #0xff	; 255
	.db #0xff	; 255
	.db #0xff	; 255
	.db #0xff	; 255
	.db #0xce	; 206
	.db #0xff	; 255
	.db #0xff	; 255
	.db #0xff	; 255
	.db #0xff	; 255
	.db #0xff	; 255
	.db #0xff	; 255
	.db #0xff	; 255
	.db #0xff	; 255
	.db #0xff	; 255
	.db #0xff	; 255
	.db #0xff	; 255
	.db #0xff	; 255
	.db #0xff	; 255
	.db #0xff	; 255
	.db #0xff	; 255
	.db #0x40	; 64
	.db #0xff	; 255
	.db #0xff	; 255
	.db #0xff	; 255
	.db #0xff	; 255
	.db #0xff	; 255
	.db #0xff	; 255
	.db #0xff	; 255
	.db #0xff	; 255
	.db #0xff	; 255
	.db #0xff	; 255
	.db #0xff	; 255
	.db #0xff	; 255
	.db #0xff	; 255
	.db #0xff	; 255
	.db #0xff	; 255
	.db #0xff	; 255
	.db #0xff	; 255
	.db #0xff	; 255
	.db #0xff	; 255
	.db #0xff	; 255
	.db #0xff	; 255
	.db #0xff	; 255
	.db #0xff	; 255
	.db #0xff	; 255
	.db #0xff	; 255
	.db #0xff	; 255
	.db #0xff	; 255
	.db #0xff	; 255
	.db #0xff	; 255
	.db #0xff	; 255
	.db #0xff	; 255
	.db #0xc3	; 195
	.db #0xff	; 255
	.db #0xff	; 255
	.db #0xff	; 255
	.db #0xff	; 255
	.db #0xff	; 255
	.db #0xff	; 255
	.db #0xff	; 255
	.db #0xff	; 255
	.db #0xff	; 255
	.db #0xff	; 255
	.db #0xff	; 255
	.db #0xff	; 255
	.db #0xff	; 255
	.db #0xff	; 255
	.db #0xff	; 255
	.db #0xe7	; 231
	.db #0xff	; 255
	.db #0xff	; 255
	.db #0xff	; 255
	.db #0xff	; 255
	.db #0xff	; 255
	.db #0xff	; 255
	.db #0xff	; 255
	.db #0xff	; 255
	.db #0xff	; 255
	.db #0xff	; 255
	.db #0xff	; 255
	.db #0xff	; 255
	.db #0xff	; 255
	.db #0xff	; 255
	.db #0xff	; 255
	.db #0x81	; 129
	.db #0xff	; 255
	.db #0xff	; 255
	.db #0xff	; 255
	.db #0xff	; 255
	.db #0xff	; 255
	.db #0xff	; 255
	.db #0xff	; 255
	.db #0xff	; 255
	.db #0xff	; 255
	.db #0xff	; 255
	.db #0xff	; 255
	.db #0xff	; 255
	.db #0xff	; 255
	.db #0xff	; 255
	.db #0xff	; 255
	.db #0x99	; 153
	.db #0xff	; 255
	.db #0xff	; 255
	.db #0xff	; 255
	.db #0xff	; 255
	.db #0xff	; 255
	.db #0xff	; 255
	.db #0xff	; 255
	.db #0xff	; 255
	.db #0xff	; 255
	.db #0xff	; 255
	.db #0xff	; 255
	.db #0xff	; 255
	.db #0xff	; 255
	.db #0xff	; 255
	.db #0xff	; 255
	.db #0xe7	; 231
	.db #0xff	; 255
	.db #0xff	; 255
	.db #0xff	; 255
	.db #0xff	; 255
	.db #0xff	; 255
	.db #0xff	; 255
	.db #0xff	; 255
	.db #0xff	; 255
	.db #0xff	; 255
	.db #0xff	; 255
	.db #0xff	; 255
	.db #0xff	; 255
	.db #0xff	; 255
	.db #0xff	; 255
	.db #0xff	; 255
__xinit__spritesize:
	.db #0x08	; 8
__xinit__lives:
	.db #0x04	; 4
__xinit__killCounter:
	.db #0x00	; 0
	.area _CABS (ABS)
